GNU gdb (GDB) 8.0.1
Copyright (C) 2017 Free Software Foundation, Inc.
License GPLv3+: GNU GPL version 3 or later <http://gnu.org/licenses/gpl.html>
This is free software: you are free to change and redistribute it.
There is NO WARRANTY, to the extent permitted by law.  Type "show copying"
and "show warranty" for details.
This GDB was configured as "x86_64-pc-linux-gnu".
Type "show configuration" for configuration details.
For bug reporting instructions, please see:
<http://www.gnu.org/software/gdb/bugs/>.
Find the GDB manual and other documentation resources online at:
<http://www.gnu.org/software/gdb/documentation/>.
For help, type "help".
Type "apropos word" to search for commands related to "word"...
Loaded 106 commands. Type pwndbg [filter] for a list.
Reading symbols from ./files/loader...done.
Breakpoint 1 at 0x4009fd: file test_loader.c, line 41.
Signal        Stop      Print   Pass to program Description
SIGSEGV       No        No      Yes             Segmentation fault
Starting program: /chakra/home/universalpackagemanager/chroot/arch-chroot/arch-pkg-build/packages/glibc/repos/core-x86_64/min-dl/loader/files/loader ./files/test_lib.so
----------------------------------------------------------------------->called init_aux() at line 113 from libstring.c
----------------------------------------------------------------------->called init_env() at line 93 from libstring.c
----------------------------------------------------------------------->called init_argX() at line 101 from libstring.c
----------------------------------------------------------------------->called currentaux() at line 611 from libstring.c
AT_SYSINFO_EHDR = 0x7f5baa266000
AT_HWCAP = 0x178bfbff
AT_PAGESZ = 4096
AT_CLKTCK = 100
AT_PHDR = 0x400040
AT_PHENT = 56
AT_PHNUM = 9
AT_BASE = 0x7f5baa046000
AT_FLAGS = (nil)
AT_ENTRY = 0x400740
AT_UID = 1000
AT_EUID = 1000
AT_GID = 1001
AT_EGID = 1001
AT_SECURE = 0
AT_HWCAP2 = (nil)
AT_EXECFN = /chakra/home/universalpackagemanager/chroot/arch-chroot/arch-pkg-build/packages/glibc/repos/core-x86_64/min-dl/loader/files/loader
AT_PLATFORM = x86_64
map succeded with address: 0x7f5baa259000
Name:            ./files/test_lib.so
ELF Identifier   ELF (\x7f\x45\x4c\x46\x02\x01\x01\x00\x00\x00\x00\x00\x00\x00\x00\x00 )
Architecture     64-bit
Data Type        2's complement, little endian
Version          Current
OS ABI           UNIX System V ABI
File Type        Shared object file
Machine          AMD x86-64 architecture
Entry point      0x0000000005f0
ELF header size  0x000000000040
Program Header   0x000000000040 (7 entries with a total of 56 bytes)
i = 0
PT_LOADS = 0
saving first load
i = 1
PT_LOADS = 1
saving last load
reading                2101304
called round_up
returning 0x7f5ba9464000
memmove round_up(0x7f5ba9463010, 0x000000001000) = 0x7f5ba9464000
called round_up
returning 0x7f5ba9464000
called round_down
returning 0x000000200000
base address range = 0x7f5ba9264000 - 0x7f5ba9465038
mapping = 0x7f5ba9464000



find 0x7f5ba9464000, 0x7f5ba9465038, (int) 1239



mapping PT_LOAD number 1
                p_flags:  0x000000000005
                p_offset:          (nil)
                p_vaddr:  0x7f5ba9464000
                p_paddr:           (nil)
                p_filesz: 0x0000000007f4
                p_memsz:  0x0000000007f4
                p_align:  0x000000200000

        p_flags: 0x000000000005 p_offset:          (nil) p_vaddr: 0x7f5ba9464000 p_paddr:          (nil) p_filesz: 0x0000000007f4 p_memsz: 0x0000000007f4 p_align: 0x000000200000


mprotect(0x7f5ba9464000+round_down(         (nil), 0x000000200000), 0x0000000007f4, 0x000000000005);
called round_down
returning 0x000000200000
mprotect succeded with size: 2036 (0x0000000007f4)
00400000-00401000 r-xp 00000000 fe:00 1888084                            /chakra/home/universalpackagemanager/chroot/arch-chroot/arch-pkg-build/packages/glibc/repos/core-x86_64/min-dl/loader/files/loader
00600000-00601000 r-xp 00000000 fe:00 1888084                            /chakra/home/universalpackagemanager/chroot/arch-chroot/arch-pkg-build/packages/glibc/repos/core-x86_64/min-dl/loader/files/loader
00601000-00602000 rwxp 00001000 fe:00 1888084                            /chakra/home/universalpackagemanager/chroot/arch-chroot/arch-pkg-build/packages/glibc/repos/core-x86_64/min-dl/loader/files/loader
00602000-00623000 rwxp 00000000 00:00 0                                  [heap]
7f5ba9463000-7f5ba9666000 rwxp 00000000 00:00 0 
7f5ba9666000-7f5ba9801000 r-xp 00000000 08:03 1576117                    /usr/lib/libc-2.25.so
7f5ba9801000-7f5ba9a00000 ---p 0019b000 08:03 1576117                    /usr/lib/libc-2.25.so
7f5ba9a00000-7f5ba9a04000 r-xp 0019a000 08:03 1576117                    /usr/lib/libc-2.25.so
7f5ba9a04000-7f5ba9a06000 rwxp 0019e000 08:03 1576117                    /usr/lib/libc-2.25.so
7f5ba9a06000-7f5ba9a0a000 rwxp 00000000 00:00 0 
7f5ba9a0a000-7f5ba9a0d000 r-xp 00000000 08:03 1576234                    /usr/lib/libdl-2.25.so
7f5ba9a0d000-7f5ba9c0c000 ---p 00003000 08:03 1576234                    /usr/lib/libdl-2.25.so
7f5ba9c0c000-7f5ba9c0d000 r-xp 00002000 08:03 1576234                    /usr/lib/libdl-2.25.so
7f5ba9c0d000-7f5ba9c0e000 rwxp 00003000 08:03 1576234                    /usr/lib/libdl-2.25.so
7f5ba9c0e000-7f5ba9c34000 r-xp 00000000 fe:00 1888077                    /chakra/home/universalpackagemanager/chroot/arch-chroot/arch-pkg-build/packages/glibc/repos/core-x86_64/min-dl/loader/files/readelf_.so
7f5ba9c34000-7f5ba9e34000 ---p 00026000 fe:00 1888077                    /chakra/home/universalpackagemanager/chroot/arch-chroot/arch-pkg-build/packages/glibc/repos/core-x86_64/min-dl/loader/files/readelf_.so
7f5ba9e34000-7f5ba9e36000 r-xp 00026000 fe:00 1888077                    /chakra/home/universalpackagemanager/chroot/arch-chroot/arch-pkg-build/packages/glibc/repos/core-x86_64/min-dl/loader/files/readelf_.so
7f5ba9e36000-7f5ba9e37000 rwxp 00028000 fe:00 1888077                    /chakra/home/universalpackagemanager/chroot/arch-chroot/arch-pkg-build/packages/glibc/repos/core-x86_64/min-dl/loader/files/readelf_.so
7f5ba9e37000-7f5ba9e42000 r-xp 00000000 fe:00 1888075                    /chakra/home/universalpackagemanager/chroot/arch-chroot/arch-pkg-build/packages/glibc/repos/core-x86_64/min-dl/loader/files/libstring.so
7f5ba9e42000-7f5baa041000 ---p 0000b000 fe:00 1888075                    /chakra/home/universalpackagemanager/chroot/arch-chroot/arch-pkg-build/packages/glibc/repos/core-x86_64/min-dl/loader/files/libstring.so
7f5baa041000-7f5baa042000 r-xp 0000a000 fe:00 1888075                    /chakra/home/universalpackagemanager/chroot/arch-chroot/arch-pkg-build/packages/glibc/repos/core-x86_64/min-dl/loader/files/libstring.so
7f5baa042000-7f5baa043000 rwxp 0000b000 fe:00 1888075                    /chakra/home/universalpackagemanager/chroot/arch-chroot/arch-pkg-build/packages/glibc/repos/core-x86_64/min-dl/loader/files/libstring.so
7f5baa043000-7f5baa046000 rwxp 00000000 00:00 0 
7f5baa046000-7f5baa069000 r-xp 00000000 08:03 1577054                    /usr/lib/ld-2.25.so
7f5baa094000-7f5baa22d000 r-xp 00000000 08:03 2108224                    /usr/lib/locale/locale-archive
7f5baa22d000-7f5baa230000 rwxp 00000000 00:00 0 
7f5baa259000-7f5baa261000 r-xp 00000000 fe:00 1888080                    /chakra/home/universalpackagemanager/chroot/arch-chroot/arch-pkg-build/packages/glibc/repos/core-x86_64/min-dl/loader/files/test_lib.so
7f5baa261000-7f5baa263000 rwxp 00000000 00:00 0 
7f5baa263000-7f5baa266000 r--p 00000000 00:00 0                          [vvar]
7f5baa266000-7f5baa268000 r-xp 00000000 00:00 0                          [vdso]
7f5baa268000-7f5baa269000 r-xp 00022000 08:03 1577054                    /usr/lib/ld-2.25.so
7f5baa269000-7f5baa26a000 rwxp 00023000 08:03 1577054                    /usr/lib/ld-2.25.so
7f5baa26a000-7f5baa26b000 rwxp 00000000 00:00 0 
7ffffffde000-7ffffffff000 rwxp 00000000 00:00 0                          [stack]
ffffffffff600000-ffffffffff601000 r-xp 00000000 00:00 0                  [vsyscall]
mapping PT_LOAD number 2
                p_flags:  0x000000000006
                p_offset: 0x000000000df8
                p_vaddr:  0x7f5ba9664df8
                p_paddr:  0x000000200df8
                p_filesz: 0x000000000238
                p_memsz:  0x000000000240
                p_align:  0x000000200000

        p_flags: 0x000000000006 p_offset: 0x000000000df8 p_vaddr: 0x7f5ba9664df8 p_paddr: 0x000000200df8 p_filesz: 0x000000000238 p_memsz: 0x000000000240 p_align: 0x000000200000


mprotect(0x7f5ba9464000+round_down(0x000000200df8, 0x000000200000), 0x000000000240, 0x000000000006);
called round_down
returning 0x000000200000
mprotect succeded with size: 576 (0x000000000240)
00400000-00401000 r-xp 00000000 fe:00 1888084                            /chakra/home/universalpackagemanager/chroot/arch-chroot/arch-pkg-build/packages/glibc/repos/core-x86_64/min-dl/loader/files/loader
00600000-00601000 r-xp 00000000 fe:00 1888084                            /chakra/home/universalpackagemanager/chroot/arch-chroot/arch-pkg-build/packages/glibc/repos/core-x86_64/min-dl/loader/files/loader
00601000-00602000 rwxp 00001000 fe:00 1888084                            /chakra/home/universalpackagemanager/chroot/arch-chroot/arch-pkg-build/packages/glibc/repos/core-x86_64/min-dl/loader/files/loader
00602000-00623000 rwxp 00000000 00:00 0                                  [heap]
7f5ba9463000-7f5ba9666000 rwxp 00000000 00:00 0 
7f5ba9666000-7f5ba9801000 r-xp 00000000 08:03 1576117                    /usr/lib/libc-2.25.so
7f5ba9801000-7f5ba9a00000 ---p 0019b000 08:03 1576117                    /usr/lib/libc-2.25.so
7f5ba9a00000-7f5ba9a04000 r-xp 0019a000 08:03 1576117                    /usr/lib/libc-2.25.so
7f5ba9a04000-7f5ba9a06000 rwxp 0019e000 08:03 1576117                    /usr/lib/libc-2.25.so
7f5ba9a06000-7f5ba9a0a000 rwxp 00000000 00:00 0 
7f5ba9a0a000-7f5ba9a0d000 r-xp 00000000 08:03 1576234                    /usr/lib/libdl-2.25.so
7f5ba9a0d000-7f5ba9c0c000 ---p 00003000 08:03 1576234                    /usr/lib/libdl-2.25.so
7f5ba9c0c000-7f5ba9c0d000 r-xp 00002000 08:03 1576234                    /usr/lib/libdl-2.25.so
7f5ba9c0d000-7f5ba9c0e000 rwxp 00003000 08:03 1576234                    /usr/lib/libdl-2.25.so
7f5ba9c0e000-7f5ba9c34000 r-xp 00000000 fe:00 1888077                    /chakra/home/universalpackagemanager/chroot/arch-chroot/arch-pkg-build/packages/glibc/repos/core-x86_64/min-dl/loader/files/readelf_.so
7f5ba9c34000-7f5ba9e34000 ---p 00026000 fe:00 1888077                    /chakra/home/universalpackagemanager/chroot/arch-chroot/arch-pkg-build/packages/glibc/repos/core-x86_64/min-dl/loader/files/readelf_.so
7f5ba9e34000-7f5ba9e36000 r-xp 00026000 fe:00 1888077                    /chakra/home/universalpackagemanager/chroot/arch-chroot/arch-pkg-build/packages/glibc/repos/core-x86_64/min-dl/loader/files/readelf_.so
7f5ba9e36000-7f5ba9e37000 rwxp 00028000 fe:00 1888077                    /chakra/home/universalpackagemanager/chroot/arch-chroot/arch-pkg-build/packages/glibc/repos/core-x86_64/min-dl/loader/files/readelf_.so
7f5ba9e37000-7f5ba9e42000 r-xp 00000000 fe:00 1888075                    /chakra/home/universalpackagemanager/chroot/arch-chroot/arch-pkg-build/packages/glibc/repos/core-x86_64/min-dl/loader/files/libstring.so
7f5ba9e42000-7f5baa041000 ---p 0000b000 fe:00 1888075                    /chakra/home/universalpackagemanager/chroot/arch-chroot/arch-pkg-build/packages/glibc/repos/core-x86_64/min-dl/loader/files/libstring.so
7f5baa041000-7f5baa042000 r-xp 0000a000 fe:00 1888075                    /chakra/home/universalpackagemanager/chroot/arch-chroot/arch-pkg-build/packages/glibc/repos/core-x86_64/min-dl/loader/files/libstring.so
7f5baa042000-7f5baa043000 rwxp 0000b000 fe:00 1888075                    /chakra/home/universalpackagemanager/chroot/arch-chroot/arch-pkg-build/packages/glibc/repos/core-x86_64/min-dl/loader/files/libstring.so
7f5baa043000-7f5baa046000 rwxp 00000000 00:00 0 
7f5baa046000-7f5baa069000 r-xp 00000000 08:03 1577054                    /usr/lib/ld-2.25.so
7f5baa094000-7f5baa22d000 r-xp 00000000 08:03 2108224                    /usr/lib/locale/locale-archive
7f5baa22d000-7f5baa230000 rwxp 00000000 00:00 0 
7f5baa259000-7f5baa261000 r-xp 00000000 fe:00 1888080                    /chakra/home/universalpackagemanager/chroot/arch-chroot/arch-pkg-build/packages/glibc/repos/core-x86_64/min-dl/loader/files/test_lib.so
7f5baa261000-7f5baa263000 rwxp 00000000 00:00 0 
7f5baa263000-7f5baa266000 r--p 00000000 00:00 0                          [vvar]
7f5baa266000-7f5baa268000 r-xp 00000000 00:00 0                          [vdso]
7f5baa268000-7f5baa269000 r-xp 00022000 08:03 1577054                    /usr/lib/ld-2.25.so
7f5baa269000-7f5baa26a000 rwxp 00023000 08:03 1577054                    /usr/lib/ld-2.25.so
7f5baa26a000-7f5baa26b000 rwxp 00000000 00:00 0 
7ffffffde000-7ffffffff000 rwxp 00000000 00:00 0                          [stack]
ffffffffff600000-ffffffffff601000 r-xp 00000000 00:00 0                  [vsyscall]
p_type:                 /* Segment type */              = PT_LOAD               /* Loadable program segment */
ATTEMPING TO READ
reading                0x0000000007f4
called round_up
returning 0x000000604000
memmove round_up(0x000000603330, 0x000000001000) = 0x000000604000
called round_up
returning 0x000000604000
correcting position by          (nil)
reading                2036
"\177ELF\2\1\1\0\0\0\0\0\0\0\0\0\3\0>\0\1\0\0\0\360\5\0\0\0\0\0\0@\0\0\0\0\0\0\0\300q\0\0\0\0\0\0\0\0\0\0@\0008\0\7\0@\0#\0"\0\1\0\0\0\5\0\0\0\0\0\0\0\0\0\0\0\0\0\0\0\0\0\0\0\0\0\0\0\0\0\0\0\364\7\0\0\0\0\0\0\364\7\0\0\0\0\0\0\0\0 \0\0\0\0\0\1\0\0\0\6\0\0\0\370\r\0\0\0\0\0\0\370\r \0\0\0\0\0\370\r \0\0\0\0\0008\2\0\0\0\0\0\0@\2\0\0\0\0\0\0\0\0 \0\0\0\0\0\2\0\0\0\6\0\0\0\20\16\0\0\0\0\0\0\20\16 \0\0\0\0\0\20\16 \0\0\0\0\0\300\1\0\0\0\0\0\0\300\1\0\0\0\0\0\0\10\0\0\0\0\0\0\0\4\0\0\0\4\0\0\0\310\1\0\0\0\0\0\0\310\1\0\0\0\0\0\0\310\1\0\0\0\0\0\0$\0\0\0\0\0\0\0$\0\0\0\0\0\0\0\4\0\0\0\0\0\0\0P\345td\4\0\0\0P\7\0\0\0\0\0\0P\7\0\0\0\0\0\0P\7\0\0\0\0\0\0$\0\0\0\0\0\0\0$\0\0\0\0\0\0\0\4\0\0\0\0\0\0\0Q\345td\6\0\0\0\0\0\0\0\0\0\0\0\0\0\0\0\0\0\0\0\0\0\0\0\0\0\0\0\0\0\0\0\0\0\0\0\0\0\0\0\0\0\0\0\20\0\0\0\0\0\0\0R\345td\4\0\0\0\370\r\0\0\0\0\0\0\370\r \0\0\0\0\0\370\r \0\0\0\0\0\10\2\0\0\0\0\0\0\10\2\0\0\0\0\0\0\1\0\0\0\0\0\0\0\4\0\0\0\24\0\0\0\3\0\0\0GNU\0\323!\251Q\236\237\304\321Q\250\317\355\340\204Z\221,-#u\0\0\0\0\3\0\0\0\7\0\0\0\1\0\0\0\6\0\0\0\210\342 \1 \4@\31\7\0\0\0\n\0\0\0\f\0\0\0BE\325\354$\277\323\305\273\343\222|\330qX\34\271\215\361\16H\323\320M\353\323\357\16\0\0\0\0\0\0\0\0\0\0\0\0\0\0\0\0\0\0\0\0\0\0\0\0\34\0\0\0 \0\0\0\0\0\0\0\0\0\0\0\0\0\0\0\0\0\0\0\272\0\0\0\22\0\0\0\0\0\0\0\0\0\0\0\0\0\0\0\0\0\0\0\1\0\0\0 \0\0\0\0\0\0\0\0\0\0\0\0\0\0\0\0\0\0\0a\0\0\0 \0\0\0\0\0\0\0\0\0\0\0\0\0\0\0\0\0\0\0008\0\0\0 \0\0\0\0\0\0\0\0\0\0\0\0\0\0\0\0\0\0\0R\0\0\0"\0\0\0\0\0\0\0\0\0\0\0\0\0\0\0\0\0\0\0\313\0\0\0\20\0\27\0000\20 \0\0\0\0\0\0\0\0\0\0\0\0\0\207\0\0\0\22\0\f\0\360\6\0\0\0\0\0\0001\0\0\0\0\0\0\0\336\0\0\0\20\0\30\0008\20 \0\0\0\0\0\0\0\0\0\0\0\0\0\322\0\0\0\20\0\30\0000\20 \0\0\0\0\0\0\0\0\0\0\0\0\0\20\0\0\0\22\0\t\0\240\5\0\0\0\0\0\0\0\0\0\0\0\0\0\0u\0\0\0\21\0\27\0(\20 \0\0\0\0\0\4\0\0\0\0\0\0\0\26\0\0\0\22\0\r\0$\7\0\0\0\0\0\0\0\0\0\0\0\0\0\0\0__gmon_start__\0_init\0_fini\0_ITM_deregisterTMCloneTable\0_ITM_registerTMCloneTable\0__cxa_finalize\0_Jv_RegisterClasses\0TESTTTTTTTTTTTTTT\0ggggggggggydcfiygitfghvjygftghvjbgytfucghvjhyftcgh\0printf\0libc.so.6\0_edata\0__bss_start\0_end\0GLIBC_2.2.5\0\0\0\0\0\0\2\0\0\0\0\0\0\0\2\0\1\0\1\0\1\0\1\0\1\0\1\0\1\0\0\0\0\0\1\0\1\0\301\0\0\0\20\0\0\0\0\0\0\0u\32i\t\0\0\2\0\343\0\0\0\0\0\0\0\370\r \0\0\0\0\0\10\0\0\0\0\0\0\0\300\6\0\0\0\0\0\0\0\16 \0\0\0\0\0\10\0\0\0\0\0\0\0\200\6\0\0\0\0\0\0 \20 \0\0\0\0\0\10\0\0\0\0\0\0\0 \20 \0\0\0\0\0\320\17 \0\0\0\0\0\6\0\0\0\1\0\0\0\0\0\0\0\0\0\0\0\330\17 \0\0\0\0\0\6\0\0\0\f\0\0\0\0\0\0\0\0\0\0\0\340\17 \0\0\0\0\0\6\0\0\0\3\0\0\0\0\0\0\0\0\0\0\0\350\17 \0\0\0\0\0\6\0\0\0\4\0\0\0\0\0\0\0\0\0\0\0\360\17 \0\0\0\0\0\6\0\0\0\5\0\0\0\0\0\0\0\0\0\0\0\370\17 \0\0\0\0\0\6\0\0\0\6\0\0\0\0\0\0\0\0\0\0\0\30\20 \0\0\0\0\0\7\0\0\0\2\0\0\0\0\0\0\0\0\0\0\0H\203\354\10H\213\0055\n \0H\205\300t\2\377\320H\203\304\10\303\0\0\0\0\0\0\0\0\0\3775B\n \0\377%D\n \0\17\37@\0\377%B\n \0h\0\0\0\0\351\340\377\377\377\377%\22\n \0f\220\0\0\0\0\0\0\0\0H\215=9\n \0H\215\0059\n \0UH)\370H\211\345H\203\370\16v\25H\213\5\276\t \0H\205\300t\t]\377\340f\17\37D\0\0]\303\17\37@\0f.\17\37\204\0\0\0\0\0H\215=\371\t \0H\2155\362\t \0UH)\376H\211\345H\301\376\3H\211\360H\301\350?H\1\306H\321\376t\30H\213\5\221\t \0H\205\300t\f]\377\340f\17\37\204\0\0\0\0\0]\303\17\37@\0f.\17\37\204\0\0\0\0\0\200=\251\t \0\0u'H\203=g\t \0\0UH\211\345t\fH\213=\202\t \0\350=\377\377\377\350H\377\377\377]\306\5\200\t \0\1\363\303\17\37@\0f.\17\37\204\0\0\0\0\0H\215=A\7 \0H\203?\0u\v\351^\377\377\377f\17\37D\0\0H\213\5\t\t \0H\205\300t\351UH\211\345\377\320]\351@\377\377\377UH\211\345H\203\354\20\307E\374\327\4\0\0H\213\5\322\10 \0\213\0\213U\374\211\306H\215=\34\0\0\0\270\0\0\0\0\350\262\376\377\377\220\311\303\0\0\0H\203\354\10H\203\304\10\303\0\0\0TESTTTTTTTTTTTTTT = %d\nk = %d\n\0\0\1\33\3;$\0\0\0\3\0\0\0p\376\377\377@\0\0\0\220\376\377\377h\0\0\0\240\377\377\377\200\0\0\0\0\0\0\0\24\0\0\0\0\0\0\0\1zR\0\1x\20\1\33\f\7\10\220\1\0\0$\0\0\0\34\0\0\0(\376\377\377 \0\0\0\0\16\20F\16\30J\17\vw\10\200\0?\32;*3$"\0\0\0\0\24\0\0\0D\0\0\0 \376\377\377\10\0\0\0\0\0\0\0\0\0\0\0\34\0\0\0\\0\0\0\30\377\377\3771\0\0\0\0A\16\20\206\2C\r\6l\f\7\10\0\0\0\0\0\0\0"
READ
p_flags:                /* Segment flags */             = 0x000000000005
p_offset:               /* Segment file offset */       =          (nil)
p_vaddr:                /* Segment virtual address */   = 0x7f5ba9264000
p_paddr:                /* Segment physical address */  =          (nil)
p_filesz:               /* Segment size in file */      = 0x0000000007f4
p_memsz:                /* Segment size in memory */    = 0x0000000007f4
p_align:                /* Segment alignment */         = 0x000000200000



                p_flags: 0x000000000005 p_offset:          (nil) p_vaddr:  0x7f5ba9264000 p_paddr:          (nil) p_filesz: 0x0000000007f4 p_memsz: 0x0000000007f4 p_align: 0x000000200000
p_type:                 /* Segment type */              = PT_LOAD               /* Loadable program segment */
ATTEMPING TO READ
reading                0x000000001038
called round_up
returning 0x000000606000
memmove round_up(0x000000605330, 0x000000001000) = 0x000000606000
called round_up
returning 0x000000606000
correcting position by 0x000000000df8
reading                576
"\300\6\0\0\0\0\0\0\200\6\0\0\0\0\0\0\0\0\0\0\0\0\0\0\1\0\0\0\0\0\0\0\301\0\0\0\0\0\0\0\f\0\0\0\0\0\0\0\240\5\0\0\0\0\0\0\r\0\0\0\0\0\0\0$\7\0\0\0\0\0\0\31\0\0\0\0\0\0\0\370\r \0\0\0\0\0\33\0\0\0\0\0\0\0\10\0\0\0\0\0\0\0\32\0\0\0\0\0\0\0\0\16 \0\0\0\0\0\34\0\0\0\0\0\0\0\10\0\0\0\0\0\0\0\365\376\377o\0\0\0\0\360\1\0\0\0\0\0\0\5\0\0\0\0\0\0\0\200\3\0\0\0\0\0\0\6\0\0\0\0\0\0\0000\2\0\0\0\0\0\0\n\0\0\0\0\0\0\0\357\0\0\0\0\0\0\0\v\0\0\0\0\0\0\0\30\0\0\0\0\0\0\0\3\0\0\0\0\0\0\0\0\20 \0\0\0\0\0\2\0\0\0\0\0\0\0\30\0\0\0\0\0\0\0\24\0\0\0\0\0\0\0\7\0\0\0\0\0\0\0\27\0\0\0\0\0\0\0\210\5\0\0\0\0\0\0\7\0\0\0\0\0\0\0\260\4\0\0\0\0\0\0\10\0\0\0\0\0\0\0\330\0\0\0\0\0\0\0\t\0\0\0\0\0\0\0\30\0\0\0\0\0\0\0\376\377\377o\0\0\0\0\220\4\0\0\0\0\0\0\377\377\377o\0\0\0\0\1\0\0\0\0\0\0\0\360\377\377o\0\0\0\0p\4\0\0\0\0\0\0\371\377\377o\0\0\0\0\3\0\0\0\0\0\0\0\0\0\0\0\0\0\0\0\0\0\0\0\0\0\0\0\0\0\0\0\0\0\0\0\0\0\0\0\0\0\0\0\0\0\0\0\0\0\0\0\0\0\0\0\0\0\0\0\0\0\0\0\0\0\0\0\0\0\0\0\0\0\0\0\0\0\0\0\0\0\0\0\0\0\0\0\0\0\0\0\0\0\0\0\0\0\0\0\0\0\0\0\0\0\0\0\0\0\0\0\0\0\0\0\0\0\0\0\0\0\0\0\0\0\0\0\0\0\0\0\0\0\0\0\0\0\0\0\20\16 \0\0\0\0\0\0\0\0\0\0\0\0\0\0\0\0\0\0\0\0\0\326\5\0\0\0\0\0\0 \20 \0\0\0\0\0\322\4\0\0\5\0\0\0GCC: (GN"
READ
p_flags:                /* Segment flags */             = 0x000000000006
p_offset:               /* Segment file offset */       = 0x000000000df8
p_vaddr:                /* Segment virtual address */   = 0x7f5ba9464df8
p_paddr:                /* Segment physical address */  = 0x000000200df8
p_filesz:               /* Segment size in file */      = 0x000000000238
p_memsz:                /* Segment size in memory */    = 0x000000000240
p_align:                /* Segment alignment */         = 0x000000200000



                p_flags: 0x000000000006 p_offset: 0x000000000df8 p_vaddr:  0x7f5ba9464df8 p_paddr: 0x000000200df8 p_filesz: 0x000000000238 p_memsz: 0x000000000240 p_align: 0x000000200000
p_type:                 /* Segment type */              = PT_DYNAMIC            /* Dynamic linking information */
called round_up
returning 0x000000608000
memmove round_up(0x0000006075c0, 0x000000001000) = 0x000000608000
called round_up
returning 0x000000608000
ATTEMPING TO READ
reading                0x000000000fd0
called round_up
returning 0x00000060a000
memmove round_up(0x000000609770, 0x000000001000) = 0x00000060a000
called round_up
returning 0x00000060a000
correcting position by 0x000000000e10
reading                448
"\1\0\0\0\0\0\0\0\301\0\0\0\0\0\0\0\f\0\0\0\0\0\0\0\240\5\0\0\0\0\0\0\r\0\0\0\0\0\0\0$\7\0\0\0\0\0\0\31\0\0\0\0\0\0\0\370\r \0\0\0\0\0\33\0\0\0\0\0\0\0\10\0\0\0\0\0\0\0\32\0\0\0\0\0\0\0\0\16 \0\0\0\0\0\34\0\0\0\0\0\0\0\10\0\0\0\0\0\0\0\365\376\377o\0\0\0\0\360\1\0\0\0\0\0\0\5\0\0\0\0\0\0\0\200\3\0\0\0\0\0\0\6\0\0\0\0\0\0\0000\2\0\0\0\0\0\0\n\0\0\0\0\0\0\0\357\0\0\0\0\0\0\0\v\0\0\0\0\0\0\0\30\0\0\0\0\0\0\0\3\0\0\0\0\0\0\0\0\20 \0\0\0\0\0\2\0\0\0\0\0\0\0\30\0\0\0\0\0\0\0\24\0\0\0\0\0\0\0\7\0\0\0\0\0\0\0\27\0\0\0\0\0\0\0\210\5\0\0\0\0\0\0\7\0\0\0\0\0\0\0\260\4\0\0\0\0\0\0\10\0\0\0\0\0\0\0\330\0\0\0\0\0\0\0\t\0\0\0\0\0\0\0\30\0\0\0\0\0\0\0\376\377\377o\0\0\0\0\220\4\0\0\0\0\0\0\377\377\377o\0\0\0\0\1\0\0\0\0\0\0\0\360\377\377o\0\0\0\0p\4\0\0\0\0\0\0\371\377\377o\0\0\0\0\3\0\0\0\0\0\0\0\0\0\0\0\0\0\0\0\0\0\0\0\0\0\0\0\0\0\0\0\0\0\0\0\0\0\0\0\0\0\0\0\0\0\0\0\0\0\0\0\0\0\0\0\0\0\0\0\0\0\0\0\0\0\0\0\0\0\0\0\0\0\0\0\0\0\0\0\0\0\0\0\0\0\0\0\0\0\0\0"
READ
p_flags:                /* Segment flags */             = 0x000000000006
p_offset:               /* Segment file offset */       = 0x000000000e10
p_vaddr:                /* Segment virtual address */   = 0x7f5ba9464e10
p_paddr:                /* Segment physical address */  = 0x000000200e10
p_filesz:               /* Segment size in file */      = 0x0000000001c0
p_memsz:                /* Segment size in memory */    = 0x0000000001c0
p_align:                /* Segment alignment */         = 0x000000000008



                p_flags: 0x000000000006 p_offset: 0x000000000e10 p_vaddr:  0x7f5ba9464e10 p_paddr: 0x000000200e10 p_filesz: 0x0000000001c0 p_memsz: 0x0000000001c0 p_align: 0x000000000008
p_type:                 /* Segment type */              = PT_NOTE               /* Auxiliary information */
ATTEMPING TO READ
reading                0x0000000001ec
called round_up
returning 0x00000060c000
memmove round_up(0x00000060b920, 0x000000001000) = 0x00000060c000
called round_up
returning 0x00000060c000
correcting position by 0x0000000001c8
reading                36
"\4\0\0\0\24\0\0\0\3\0\0\0GNU\0\323!\251Q\236\237\304\321Q\250\317\355\340\204Z\221,-#u"
READ
p_flags:                /* Segment flags */             = 0x000000000004
p_offset:               /* Segment file offset */       = 0x0000000001c8
p_vaddr:                /* Segment virtual address */   = 0x7f5ba92641c8
p_paddr:                /* Segment physical address */  = 0x0000000001c8
p_filesz:               /* Segment size in file */      = 0x000000000024
p_memsz:                /* Segment size in memory */    = 0x000000000024
p_align:                /* Segment alignment */         = 0x000000000004



                p_flags: 0x000000000004 p_offset: 0x0000000001c8 p_vaddr:  0x7f5ba92641c8 p_paddr: 0x0000000001c8 p_filesz: 0x000000000024 p_memsz: 0x000000000024 p_align: 0x000000000004
p_type:                 /* Segment type */              = PT_GNU_EH_FRAME       /* GCC .eh_frame_hdr segment */
ATTEMPING TO READ
reading                0x000000000774
called round_up
returning 0x00000060d000
memmove round_up(0x00000060cb50, 0x000000001000) = 0x00000060d000
called round_up
returning 0x00000060d000
correcting position by 0x000000000750
reading                36
"\1\33\3;$\0\0\0\3\0\0\0p\376\377\377@\0\0\0\220\376\377\377h\0\0\0\240\377\377\377\200\0\0\0"
READ
p_flags:                /* Segment flags */             = 0x000000000004
p_offset:               /* Segment file offset */       = 0x000000000750
p_vaddr:                /* Segment virtual address */   = 0x7f5ba9264750
p_paddr:                /* Segment physical address */  = 0x000000000750
p_filesz:               /* Segment size in file */      = 0x000000000024
p_memsz:                /* Segment size in memory */    = 0x000000000024
p_align:                /* Segment alignment */         = 0x000000000004



                p_flags: 0x000000000004 p_offset: 0x000000000750 p_vaddr:  0x7f5ba9264750 p_paddr: 0x000000000750 p_filesz: 0x000000000024 p_memsz: 0x000000000024 p_align: 0x000000000004
p_type:                 /* Segment type */              = PT_GNU_STACK          /* Indicates stack executability */
ATTEMPING TO READ
reading                         (nil)
called round_up
returning 0x00000060f000
memmove round_up(0x00000060e300, 0x000000001000) = 0x00000060f000
called round_up
returning 0x00000060f000
correcting position by          (nil)
reading                0
""
READ
p_flags:                /* Segment flags */             = 0x000000000006
p_offset:               /* Segment file offset */       =          (nil)
p_vaddr:                /* Segment virtual address */   = 0x7f5ba9264000
p_paddr:                /* Segment physical address */  =          (nil)
p_filesz:               /* Segment size in file */      =          (nil)
p_memsz:                /* Segment size in memory */    =          (nil)
p_align:                /* Segment alignment */         = 0x000000000010



                p_flags: 0x000000000006 p_offset:          (nil) p_vaddr:  0x7f5ba9264000 p_paddr:          (nil) p_filesz:          (nil) p_memsz:          (nil) p_align: 0x000000000010
p_type:                 /* Segment type */              = PT_GNU_RELRO          /* Read-only after relocation */
ATTEMPING TO READ
reading                0x000000001000
called round_up
returning 0x000000610000
memmove round_up(0x00000060f330, 0x000000001000) = 0x000000610000
called round_up
returning 0x000000610000
correcting position by 0x000000000df8
reading                520
"\300\6\0\0\0\0\0\0\200\6\0\0\0\0\0\0\0\0\0\0\0\0\0\0\1\0\0\0\0\0\0\0\301\0\0\0\0\0\0\0\f\0\0\0\0\0\0\0\240\5\0\0\0\0\0\0\r\0\0\0\0\0\0\0$\7\0\0\0\0\0\0\31\0\0\0\0\0\0\0\370\r \0\0\0\0\0\33\0\0\0\0\0\0\0\10\0\0\0\0\0\0\0\32\0\0\0\0\0\0\0\0\16 \0\0\0\0\0\34\0\0\0\0\0\0\0\10\0\0\0\0\0\0\0\365\376\377o\0\0\0\0\360\1\0\0\0\0\0\0\5\0\0\0\0\0\0\0\200\3\0\0\0\0\0\0\6\0\0\0\0\0\0\0000\2\0\0\0\0\0\0\n\0\0\0\0\0\0\0\357\0\0\0\0\0\0\0\v\0\0\0\0\0\0\0\30\0\0\0\0\0\0\0\3\0\0\0\0\0\0\0\0\20 \0\0\0\0\0\2\0\0\0\0\0\0\0\30\0\0\0\0\0\0\0\24\0\0\0\0\0\0\0\7\0\0\0\0\0\0\0\27\0\0\0\0\0\0\0\210\5\0\0\0\0\0\0\7\0\0\0\0\0\0\0\260\4\0\0\0\0\0\0\10\0\0\0\0\0\0\0\330\0\0\0\0\0\0\0\t\0\0\0\0\0\0\0\30\0\0\0\0\0\0\0\376\377\377o\0\0\0\0\220\4\0\0\0\0\0\0\377\377\377o\0\0\0\0\1\0\0\0\0\0\0\0\360\377\377o\0\0\0\0p\4\0\0\0\0\0\0\371\377\377o\0\0\0\0\3\0\0\0\0\0\0\0\0\0\0\0\0\0\0\0\0\0\0\0\0\0\0\0\0\0\0\0\0\0\0\0\0\0\0\0\0\0\0\0\0\0\0\0\0\0\0\0\0\0\0\0\0\0\0\0\0\0\0\0\0\0\0\0\0\0\0\0\0\0\0\0\0\0\0\0\0\0\0\0\0\0\0\0\0\0\0\0\0\0\0\0\0\0\0\0\0\0\0\0\0\0\0\0\0\0\0\0\0\0\0\0\0\0\0\0\0\0\0\0\0\0\0\0\0\0\0\0\0\0\0\0\0\0\0\0"
READ
p_flags:                /* Segment flags */             = 0x000000000004
p_offset:               /* Segment file offset */       = 0x000000000df8
p_vaddr:                /* Segment virtual address */   = 0x7f5ba9464df8
p_paddr:                /* Segment physical address */  = 0x000000200df8
p_filesz:               /* Segment size in file */      = 0x000000000208
p_memsz:                /* Segment size in memory */    = 0x000000000208
p_align:                /* Segment alignment */         = 0x000000000001



                p_flags: 0x000000000004 p_offset: 0x000000000df8 p_vaddr:  0x7f5ba9464df8 p_paddr: 0x000000200df8 p_filesz: 0x000000000208 p_memsz: 0x000000000208 p_align: 0x000000000001
PT_LOAD 1 = 
p_flags:                /* Segment flags */             = 0x000000000005
p_offset:               /* Segment file offset */       =          (nil)
p_vaddr:                /* Segment virtual address */   = 0x7f5ba9264000
p_paddr:                /* Segment physical address */  =          (nil)
p_filesz:               /* Segment size in file */      = 0x0000000007f4
p_memsz:                /* Segment size in memory */    = 0x0000000007f4
p_align:                /* Segment alignment */         = 0x000000200000


PT_LOAD 2 = 
p_flags:                /* Segment flags */             = 0x000000000006
p_offset:               /* Segment file offset */       = 0x000000000df8
p_vaddr:                /* Segment virtual address */   = 0x7f5ba9464df8
p_paddr:                /* Segment physical address */  = 0x000000200df8
p_filesz:               /* Segment size in file */      = 0x000000000238
p_memsz:                /* Segment size in memory */    = 0x000000000240
p_align:                /* Segment alignment */         = 0x000000200000


first PT_LOAD elf_program_header[0]->p_paddr = 
0x7f5ba9264000
Second PT_LOAD elf_program_header[1]->p_paddr = 
0x7f5ba9464df8
examining current entries:
called get_dynamic_entry
testing if DT_NEEDED == -1 (unknown)
testing if DT_INIT == -1 (unknown)
testing if DT_FINI == -1 (unknown)
testing if DT_INIT_ARRAY == -1 (unknown)
testing if DT_INIT_ARRAYSZ == -1 (unknown)
testing if DT_FINI_ARRAY == -1 (unknown)
testing if DT_FINI_ARRAYSZ == -1 (unknown)
testing if 1879047925 == -1 (unknown)
testing if DT_STRTAB == -1 (unknown)
testing if DT_SYMTAB == -1 (unknown)
testing if DT_STRSZ == -1 (unknown)
testing if DT_SYMENT == -1 (unknown)
testing if DT_PLTGOT == -1 (unknown)
testing if DT_PLTRELSZ == -1 (unknown)
testing if DT_PLTREL == -1 (unknown)
testing if DT_JMPREL == -1 (unknown)
testing if DT_RELA == -1 (unknown)
testing if DT_RELASZ == -1 (unknown)
testing if DT_RELAENT == -1 (unknown)
testing if DT_VERNEED == -1 (unknown)
testing if DT_VERNEEDNUM == -1 (unknown)
testing if DT_VERSYM == -1 (unknown)
testing if DT_RELACOUNT == -1 (unknown)
returning 0
Section Header   _elf_header->e_shstrndx 0x000000000022 (_elf_header->e_shnum = 35 entries with a total of _elf_header->e_shentsize = 64 (should match 64) bytes, offset is _elf_header->e_shoff = 0x0000000071c0)

eh->e_shstrndx = 0xa9264022
        ================================================================================
        idx offset     load-addr  size       algn type       flags      section
        ================================================================================
        000          (nil) 0x7f5ba9264000          (nil)    0          (nil)          (nil) 
        001 0x0000000001c8 0x7f5ba92641c8 0x000000000024    4 0x000000000007 0x000000000002 .note.gnu.build-id
        002 0x0000000001f0 0x7f5ba92641f0 0x000000000040    8 0x00006ffffff6 0x000000000002 .gnu.hash
        003 0x000000000230 0x7f5ba9264230 0x000000000150    8 0x00000000000b 0x000000000002 .dynsym
        004 0x000000000380 0x7f5ba9264380 0x0000000000ef    1 0x000000000003 0x000000000002 .dynstr
        005 0x000000000470 0x7f5ba9264470 0x00000000001c    2 0x00006fffffff 0x000000000002 .gnu.version
        006 0x000000000490 0x7f5ba9264490 0x000000000020    8 0x00006ffffffe 0x000000000002 .gnu.version_r
        007 0x0000000004b0 0x7f5ba92644b0 0x0000000000d8    8 0x000000000004 0x000000000002 .rela.dyn
        008 0x000000000588 0x7f5ba9264588 0x000000000018    8 0x000000000004 0x000000000042 .rela.plt
        009 0x0000000005a0 0x7f5ba92645a0 0x000000000017    4 0x000000000001 0x000000000006 .init
        010 0x0000000005c0 0x7f5ba92645c0 0x000000000020   16 0x000000000001 0x000000000006 .plt
        011 0x0000000005e0 0x7f5ba92645e0 0x000000000008    8 0x000000000001 0x000000000006 .plt.got
        012 0x0000000005f0 0x7f5ba92645f0 0x000000000131   16 0x000000000001 0x000000000006 .text
        013 0x000000000724 0x7f5ba9264724 0x000000000009    4 0x000000000001 0x000000000006 .fini
        014 0x000000000730 0x7f5ba9264730 0x00000000001f    8 0x000000000001 0x000000000002 .rodata
        015 0x000000000750 0x7f5ba9264750 0x000000000024    4 0x000000000001 0x000000000002 .eh_frame_hdr
        016 0x000000000778 0x7f5ba9264778 0x00000000007c    8 0x000000000001 0x000000000002 .eh_frame
        017 0x000000000df8 0x7f5ba9464df8 0x000000000008    8 0x00000000000e 0x000000000003 .init_array
        018 0x000000000e00 0x7f5ba9464e00 0x000000000008    8 0x00000000000f 0x000000000003 .fini_array
        019 0x000000000e08 0x7f5ba9464e08 0x000000000008    8 0x000000000001 0x000000000003 .jcr
        020 0x000000000e10 0x7f5ba9464e10 0x0000000001c0    8 0x000000000006 0x000000000003 .dynamic
        021 0x000000000fd0 0x7f5ba9464fd0 0x000000000030    8 0x000000000001 0x000000000003 .got
        022 0x000000001000 0x7f5ba9465000 0x000000000020    8 0x000000000001 0x000000000003 .got.plt
        023 0x000000001020 0x7f5ba9465020 0x000000000010    8 0x000000000001 0x000000000003 .data
        024 0x000000001030 0x7f5ba9465030 0x000000000008    1 0x000000000008 0x000000000003 .bss
        025 0x000000001030 0x7f5ba9264000 0x00000000001a    1 0x000000000001 0x000000000030 .comment
        026 0x00000000104a 0x7f5ba9264000 0x000000000030    1 0x000000000001          (nil) .debug_aranges
        027 0x00000000107a 0x7f5ba9264000 0x00000000035c    1 0x000000000001          (nil) .debug_info
        028 0x0000000013d6 0x7f5ba9264000 0x000000000103    1 0x000000000001          (nil) .debug_abbrev
        029 0x0000000014d9 0x7f5ba9264000 0x0000000001a8    1 0x000000000001          (nil) .debug_line
        030 0x000000001681 0x7f5ba9264000 0x000000004177    1 0x000000000001 0x000000000030 .debug_str
        031 0x0000000057f8 0x7f5ba9264000 0x000000001056    1 0x000000000001          (nil) .debug_macro
        032 0x000000006850 0x7f5ba9264000 0x000000000618    8 0x000000000002          (nil) .symtab
        033 0x000000006e68 0x7f5ba9264000 0x000000000214    1 0x000000000003          (nil) .strtab
        034 0x00000000707c 0x7f5ba9264000 0x000000000143    1 0x000000000003          (nil) .shstrtab
        ================================================================================


[NULL                     (Section header table entry unused)                   Section 0, Index 0]

[NOTE                     (Notes)                                               Section 1, Index 1]

[GNU_HASH                 (GNU-style hash table)                                Section 2, Index 2]

[DYNSYM                   (Dynamic linker symbol table)                         Section 3, Index 3]
string/symbol table index = 4
links: 0
14 symbols
index: 0        size:          0        binding: LOCAL   ( Local  symbol )  visibility: default   (Default symbol visibility rules)      address: 0x7f5ba9264000        value:   invalid range  type: NOTYPE   (Symbol type is unspecified)             name: 

----------------------------------------------------------------------->called bcmp_() at line 32 from libstring.c
ERROR: different length string comparision, might want to use strcmp instead
index: 1        size:          0        binding: WEAK    (  Weak symbol  )  visibility: default   (Default symbol visibility rules)      address: 0x7f5ba9264000        value:   invalid range  type: NOTYPE   (Symbol type is unspecified)             name: _ITM_deregisterTMCloneTable

----------------------------------------------------------------------->called bcmp_() at line 32 from libstring.c
ERROR: different length string comparision, might want to use strcmp instead
index: 2        size:          0        binding: GLOBAL  ( Global symbol )  visibility: default   (Default symbol visibility rules)      address: 0x7f5ba9464000        value:      1179403647  type: FUNCTION (Symbol is a code object)                name: printf

----------------------------------------------------------------------->called bcmp_() at line 32 from libstring.c
ERROR: different length string comparision, might want to use strcmp instead
index: 3        size:          0        binding: WEAK    (  Weak symbol  )  visibility: default   (Default symbol visibility rules)      address: 0x7f5ba9264000        value:   invalid range  type: NOTYPE   (Symbol type is unspecified)             name: __gmon_start__

----------------------------------------------------------------------->called bcmp_() at line 32 from libstring.c
ERROR: different length string comparision, might want to use strcmp instead
index: 4        size:          0        binding: WEAK    (  Weak symbol  )  visibility: default   (Default symbol visibility rules)      address: 0x7f5ba9264000        value:   invalid range  type: NOTYPE   (Symbol type is unspecified)             name: _Jv_RegisterClasses

----------------------------------------------------------------------->called bcmp_() at line 32 from libstring.c
ERROR: different length string comparision, might want to use strcmp instead
index: 5        size:          0        binding: WEAK    (  Weak symbol  )  visibility: default   (Default symbol visibility rules)      address: 0x7f5ba9264000        value:   invalid range  type: NOTYPE   (Symbol type is unspecified)             name: _ITM_registerTMCloneTable

----------------------------------------------------------------------->called bcmp_() at line 32 from libstring.c
ERROR: different length string comparision, might want to use strcmp instead
index: 6        size:          0        binding: WEAK    (  Weak symbol  )  visibility: default   (Default symbol visibility rules)      address: 0x7f5ba9464000        value:      1179403647  type: FUNCTION (Symbol is a code object)                name: __cxa_finalize

----------------------------------------------------------------------->called bcmp_() at line 32 from libstring.c
ERROR: different length string comparision, might want to use strcmp instead
index: 7        size:          0        binding: GLOBAL  ( Global symbol )  visibility: default   (Default symbol visibility rules)      address: 0x7f5ba9465030        value:       977486663  type: NOTYPE   (Symbol type is unspecified)             name: _edata

----------------------------------------------------------------------->called bcmp_() at line 32 from libstring.c
ERROR: different length string comparision, might want to use strcmp instead
index: 8        size:         49        binding: GLOBAL  ( Global symbol )  visibility: default   (Default symbol visibility rules)      address: 0x7f5ba94646f0        value:      -443987883  type: FUNCTION (Symbol is a code object)                name: ggggggggggydcfiygitfghvjygftghvjbgytfucghvjhyftcgh

----------------------------------------------------------------------->called bcmp_() at line 32 from libstring.c
ggggggggggydcfiygitfghvjygftghvjbgytfucghvjhyftcgh found
int (*testb)()                               =0x7f5ba94646f0
(0x7f5ba9264000+0x0000000006f0+0x000000200000=0x7f5ba94646f0)
test();
value:      is not int
00400000-00401000 r-xp 00000000 fe:00 1888084                            /chakra/home/universalpackagemanager/chroot/arch-chroot/arch-pkg-build/packages/glibc/repos/core-x86_64/min-dl/loader/files/loader
00600000-00601000 r-xp 00000000 fe:00 1888084                            /chakra/home/universalpackagemanager/chroot/arch-chroot/arch-pkg-build/packages/glibc/repos/core-x86_64/min-dl/loader/files/loader
00601000-00602000 rwxp 00001000 fe:00 1888084                            /chakra/home/universalpackagemanager/chroot/arch-chroot/arch-pkg-build/packages/glibc/repos/core-x86_64/min-dl/loader/files/loader
00602000-00623000 rwxp 00000000 00:00 0                                  [heap]
7f5ba9463000-7f5ba9666000 rwxp 00000000 00:00 0 
7f5ba9666000-7f5ba9801000 r-xp 00000000 08:03 1576117                    /usr/lib/libc-2.25.so
7f5ba9801000-7f5ba9a00000 ---p 0019b000 08:03 1576117                    /usr/lib/libc-2.25.so
7f5ba9a00000-7f5ba9a04000 r-xp 0019a000 08:03 1576117                    /usr/lib/libc-2.25.so
7f5ba9a04000-7f5ba9a06000 rwxp 0019e000 08:03 1576117                    /usr/lib/libc-2.25.so
7f5ba9a06000-7f5ba9a0a000 rwxp 00000000 00:00 0 
7f5ba9a0a000-7f5ba9a0d000 r-xp 00000000 08:03 1576234                    /usr/lib/libdl-2.25.so
7f5ba9a0d000-7f5ba9c0c000 ---p 00003000 08:03 1576234                    /usr/lib/libdl-2.25.so
7f5ba9c0c000-7f5ba9c0d000 r-xp 00002000 08:03 1576234                    /usr/lib/libdl-2.25.so
7f5ba9c0d000-7f5ba9c0e000 rwxp 00003000 08:03 1576234                    /usr/lib/libdl-2.25.so
7f5ba9c0e000-7f5ba9c34000 r-xp 00000000 fe:00 1888077                    /chakra/home/universalpackagemanager/chroot/arch-chroot/arch-pkg-build/packages/glibc/repos/core-x86_64/min-dl/loader/files/readelf_.so
7f5ba9c34000-7f5ba9e34000 ---p 00026000 fe:00 1888077                    /chakra/home/universalpackagemanager/chroot/arch-chroot/arch-pkg-build/packages/glibc/repos/core-x86_64/min-dl/loader/files/readelf_.so
7f5ba9e34000-7f5ba9e36000 r-xp 00026000 fe:00 1888077                    /chakra/home/universalpackagemanager/chroot/arch-chroot/arch-pkg-build/packages/glibc/repos/core-x86_64/min-dl/loader/files/readelf_.so
7f5ba9e36000-7f5ba9e37000 rwxp 00028000 fe:00 1888077                    /chakra/home/universalpackagemanager/chroot/arch-chroot/arch-pkg-build/packages/glibc/repos/core-x86_64/min-dl/loader/files/readelf_.so
7f5ba9e37000-7f5ba9e42000 r-xp 00000000 fe:00 1888075                    /chakra/home/universalpackagemanager/chroot/arch-chroot/arch-pkg-build/packages/glibc/repos/core-x86_64/min-dl/loader/files/libstring.so
7f5ba9e42000-7f5baa041000 ---p 0000b000 fe:00 1888075                    /chakra/home/universalpackagemanager/chroot/arch-chroot/arch-pkg-build/packages/glibc/repos/core-x86_64/min-dl/loader/files/libstring.so
7f5baa041000-7f5baa042000 r-xp 0000a000 fe:00 1888075                    /chakra/home/universalpackagemanager/chroot/arch-chroot/arch-pkg-build/packages/glibc/repos/core-x86_64/min-dl/loader/files/libstring.so
7f5baa042000-7f5baa043000 rwxp 0000b000 fe:00 1888075                    /chakra/home/universalpackagemanager/chroot/arch-chroot/arch-pkg-build/packages/glibc/repos/core-x86_64/min-dl/loader/files/libstring.so
7f5baa043000-7f5baa046000 rwxp 00000000 00:00 0 
7f5baa046000-7f5baa069000 r-xp 00000000 08:03 1577054                    /usr/lib/ld-2.25.so
7f5baa094000-7f5baa22d000 r-xp 00000000 08:03 2108224                    /usr/lib/locale/locale-archive
7f5baa22d000-7f5baa230000 rwxp 00000000 00:00 0 
7f5baa259000-7f5baa261000 r-xp 00000000 fe:00 1888080                    /chakra/home/universalpackagemanager/chroot/arch-chroot/arch-pkg-build/packages/glibc/repos/core-x86_64/min-dl/loader/files/test_lib.so
7f5baa261000-7f5baa263000 rwxp 00000000 00:00 0 
7f5baa263000-7f5baa266000 r--p 00000000 00:00 0                          [vvar]
7f5baa266000-7f5baa268000 r-xp 00000000 00:00 0                          [vdso]
7f5baa268000-7f5baa269000 r-xp 00022000 08:03 1577054                    /usr/lib/ld-2.25.so
7f5baa269000-7f5baa26a000 rwxp 00023000 08:03 1577054                    /usr/lib/ld-2.25.so
7f5baa26a000-7f5baa26b000 rwxp 00000000 00:00 0 
7ffffffde000-7ffffffff000 rwxp 00000000 00:00 0                          [stack]
ffffffffff600000-ffffffffff601000 r-xp 00000000 00:00 0                  [vsyscall]
index: 9        size:          0        binding: GLOBAL  ( Global symbol )  visibility: default   (Default symbol visibility rules)      address: 0x7f5ba9465038        value:   invalid range  type: NOTYPE   (Symbol type is unspecified)             name: _end

----------------------------------------------------------------------->called bcmp_() at line 32 from libstring.c
ERROR: different length string comparision, might want to use strcmp instead
index: 10       size:          0        binding: GLOBAL  ( Global symbol )  visibility: default   (Default symbol visibility rules)      address: 0x7f5ba9465030        value:       977486663  type: NOTYPE   (Symbol type is unspecified)             name: __bss_start

----------------------------------------------------------------------->called bcmp_() at line 32 from libstring.c
ERROR: different length string comparision, might want to use strcmp instead
index: 11       size:          0        binding: GLOBAL  ( Global symbol )  visibility: default   (Default symbol visibility rules)      address: 0x7f5ba94645a0        value:       149717832  type: FUNCTION (Symbol is a code object)                name: _init

----------------------------------------------------------------------->called bcmp_() at line 32 from libstring.c
ERROR: different length string comparision, might want to use strcmp instead
index: 12       size:          4        binding: GLOBAL  ( Global symbol )  visibility: default   (Default symbol visibility rules)      address: 0x7f5ba9465028        value:            1234  type: OBJECT   (Symbol is a data object)                name: TESTTTTTTTTTTTTTT

----------------------------------------------------------------------->called bcmp_() at line 32 from libstring.c
ERROR: different length string comparision, might want to use strcmp instead
index: 13       size:          0        binding: GLOBAL  ( Global symbol )  visibility: default   (Default symbol visibility rules)      address: 0x7f5ba9464724        value:       149717832  type: FUNCTION (Symbol is a code object)                name: _fini

----------------------------------------------------------------------->called bcmp_() at line 32 from libstring.c
ERROR: different length string comparision, might want to use strcmp instead

[STRTAB                   (String table)                                        Section 4, Index 4]

[GNU_versym               (Version symbol table) or HISUNW (Sun-specific high bound) or HIOS (End OS-specific type) Section 5, Index 5]

[GNU_verneed              (Version needs section)                               Section 6, Index 6]

[RELA                     (Relocation entries with addends)                     Section 7, Index 7]

[RELA                     (Relocation entries with addends)                     Section 8, Index 8]

[PROGBITS                 (Program data)                                        Section 9, Index 9]

[PROGBITS                 (Program data)                                        Section 10, Index 10]

[PROGBITS                 (Program data)                                        Section 11, Index 11]

[PROGBITS                 (Program data)                                        Section 12, Index 12]

[PROGBITS                 (Program data)                                        Section 13, Index 13]

[PROGBITS                 (Program data)                                        Section 14, Index 14]

[PROGBITS                 (Program data)                                        Section 15, Index 15]

[PROGBITS                 (Program data)                                        Section 16, Index 16]

[INIT_ARRAY               (Array of constructors)                               Section 17, Index 17]

[FINI_ARRAY               (Array of destructors)                                Section 18, Index 18]

[PROGBITS                 (Program data)                                        Section 19, Index 19]

[DYNAMIC                  (Dynamic linking information)                         Section 20, Index 20]

[PROGBITS                 (Program data)                                        Section 21, Index 21]

[PROGBITS                 (Program data)                                        Section 22, Index 22]

[PROGBITS                 (Program data)                                        Section 23, Index 23]

[NOBITS                   (Program space with no data (bss))                    Section 24, Index 24]

[PROGBITS                 (Program data)                                        Section 25, Index 25]

[PROGBITS                 (Program data)                                        Section 26, Index 26]

[PROGBITS                 (Program data)                                        Section 27, Index 27]

[PROGBITS                 (Program data)                                        Section 28, Index 28]

[PROGBITS                 (Program data)                                        Section 29, Index 29]

[PROGBITS                 (Program data)                                        Section 30, Index 30]

[PROGBITS                 (Program data)                                        Section 31, Index 31]

[SYMTAB                   (Symbol table)                                        Section 32, Index 32]
string/symbol table index = 33
links: 0
65 symbols
index: 0        size:          0        binding: LOCAL   ( Local  symbol )  visibility: default   (Default symbol visibility rules)      address: 0x7f5ba9264000        value:   invalid range  type: NOTYPE   (Symbol type is unspecified)             name: 

----------------------------------------------------------------------->called bcmp_() at line 32 from libstring.c
ERROR: different length string comparision, might want to use strcmp instead
index: 1        size:          0        binding: LOCAL   ( Local  symbol )  visibility: default   (Default symbol visibility rules)      address: 0x7f5ba92641c8        value:      is not int  type: SECTION  (Symbol associated with a section)       name: 

----------------------------------------------------------------------->called bcmp_() at line 32 from libstring.c
ERROR: different length string comparision, might want to use strcmp instead
index: 2        size:          0        binding: LOCAL   ( Local  symbol )  visibility: default   (Default symbol visibility rules)      address: 0x7f5ba92641f0        value:      is not int  type: SECTION  (Symbol associated with a section)       name: 

----------------------------------------------------------------------->called bcmp_() at line 32 from libstring.c
ERROR: different length string comparision, might want to use strcmp instead
index: 3        size:          0        binding: LOCAL   ( Local  symbol )  visibility: default   (Default symbol visibility rules)      address: 0x7f5ba9264230        value:      is not int  type: SECTION  (Symbol associated with a section)       name: 

----------------------------------------------------------------------->called bcmp_() at line 32 from libstring.c
ERROR: different length string comparision, might want to use strcmp instead
index: 4        size:          0        binding: LOCAL   ( Local  symbol )  visibility: default   (Default symbol visibility rules)      address: 0x7f5ba9264380        value:      is not int  type: SECTION  (Symbol associated with a section)       name: 

----------------------------------------------------------------------->called bcmp_() at line 32 from libstring.c
ERROR: different length string comparision, might want to use strcmp instead
index: 5        size:          0        binding: LOCAL   ( Local  symbol )  visibility: default   (Default symbol visibility rules)      address: 0x7f5ba9264470        value:      is not int  type: SECTION  (Symbol associated with a section)       name: 

----------------------------------------------------------------------->called bcmp_() at line 32 from libstring.c
ERROR: different length string comparision, might want to use strcmp instead
index: 6        size:          0        binding: LOCAL   ( Local  symbol )  visibility: default   (Default symbol visibility rules)      address: 0x7f5ba9264490        value:      is not int  type: SECTION  (Symbol associated with a section)       name: 

----------------------------------------------------------------------->called bcmp_() at line 32 from libstring.c
ERROR: different length string comparision, might want to use strcmp instead
index: 7        size:          0        binding: LOCAL   ( Local  symbol )  visibility: default   (Default symbol visibility rules)      address: 0x7f5ba92644b0        value:      is not int  type: SECTION  (Symbol associated with a section)       name: 

----------------------------------------------------------------------->called bcmp_() at line 32 from libstring.c
ERROR: different length string comparision, might want to use strcmp instead
index: 8        size:          0        binding: LOCAL   ( Local  symbol )  visibility: default   (Default symbol visibility rules)      address: 0x7f5ba9264588        value:      is not int  type: SECTION  (Symbol associated with a section)       name: 

----------------------------------------------------------------------->called bcmp_() at line 32 from libstring.c
ERROR: different length string comparision, might want to use strcmp instead
index: 9        size:          0        binding: LOCAL   ( Local  symbol )  visibility: default   (Default symbol visibility rules)      address: 0x7f5ba92645a0        value:      is not int  type: SECTION  (Symbol associated with a section)       name: 

----------------------------------------------------------------------->called bcmp_() at line 32 from libstring.c
ERROR: different length string comparision, might want to use strcmp instead
index: 10       size:          0        binding: LOCAL   ( Local  symbol )  visibility: default   (Default symbol visibility rules)      address: 0x7f5ba92645c0        value:      is not int  type: SECTION  (Symbol associated with a section)       name: 

----------------------------------------------------------------------->called bcmp_() at line 32 from libstring.c
ERROR: different length string comparision, might want to use strcmp instead
index: 11       size:          0        binding: LOCAL   ( Local  symbol )  visibility: default   (Default symbol visibility rules)      address: 0x7f5ba92645e0        value:      is not int  type: SECTION  (Symbol associated with a section)       name: 

----------------------------------------------------------------------->called bcmp_() at line 32 from libstring.c
ERROR: different length string comparision, might want to use strcmp instead
index: 12       size:          0        binding: LOCAL   ( Local  symbol )  visibility: default   (Default symbol visibility rules)      address: 0x7f5ba92645f0        value:      is not int  type: SECTION  (Symbol associated with a section)       name: 

----------------------------------------------------------------------->called bcmp_() at line 32 from libstring.c
ERROR: different length string comparision, might want to use strcmp instead
index: 13       size:          0        binding: LOCAL   ( Local  symbol )  visibility: default   (Default symbol visibility rules)      address: 0x7f5ba9264724        value:      is not int  type: SECTION  (Symbol associated with a section)       name: 

----------------------------------------------------------------------->called bcmp_() at line 32 from libstring.c
ERROR: different length string comparision, might want to use strcmp instead
index: 14       size:          0        binding: LOCAL   ( Local  symbol )  visibility: default   (Default symbol visibility rules)      address: 0x7f5ba9264730        value:      is not int  type: SECTION  (Symbol associated with a section)       name: 

----------------------------------------------------------------------->called bcmp_() at line 32 from libstring.c
ERROR: different length string comparision, might want to use strcmp instead
index: 15       size:          0        binding: LOCAL   ( Local  symbol )  visibility: default   (Default symbol visibility rules)      address: 0x7f5ba9264750        value:      is not int  type: SECTION  (Symbol associated with a section)       name: 

----------------------------------------------------------------------->called bcmp_() at line 32 from libstring.c
ERROR: different length string comparision, might want to use strcmp instead
index: 16       size:          0        binding: LOCAL   ( Local  symbol )  visibility: default   (Default symbol visibility rules)      address: 0x7f5ba9264778        value:      is not int  type: SECTION  (Symbol associated with a section)       name: 

----------------------------------------------------------------------->called bcmp_() at line 32 from libstring.c
ERROR: different length string comparision, might want to use strcmp instead
index: 17       size:          0        binding: LOCAL   ( Local  symbol )  visibility: default   (Default symbol visibility rules)      address: 0x7f5ba9464df8        value:            1728  type: SECTION  (Symbol associated with a section)       name: 

----------------------------------------------------------------------->called bcmp_() at line 32 from libstring.c
ERROR: different length string comparision, might want to use strcmp instead
index: 18       size:          0        binding: LOCAL   ( Local  symbol )  visibility: default   (Default symbol visibility rules)      address: 0x7f5ba9464e00        value:            1664  type: SECTION  (Symbol associated with a section)       name: 

----------------------------------------------------------------------->called bcmp_() at line 32 from libstring.c
ERROR: different length string comparision, might want to use strcmp instead
index: 19       size:          0        binding: LOCAL   ( Local  symbol )  visibility: default   (Default symbol visibility rules)      address: 0x7f5ba9464e08        value:               0  type: SECTION  (Symbol associated with a section)       name: 

----------------------------------------------------------------------->called bcmp_() at line 32 from libstring.c
ERROR: different length string comparision, might want to use strcmp instead
index: 20       size:          0        binding: LOCAL   ( Local  symbol )  visibility: default   (Default symbol visibility rules)      address: 0x7f5ba9464e10        value:               1  type: SECTION  (Symbol associated with a section)       name: 

----------------------------------------------------------------------->called bcmp_() at line 32 from libstring.c
ERROR: different length string comparision, might want to use strcmp instead
index: 21       size:          0        binding: LOCAL   ( Local  symbol )  visibility: default   (Default symbol visibility rules)      address: 0x7f5ba9464fd0        value:               0  type: SECTION  (Symbol associated with a section)       name: 

----------------------------------------------------------------------->called bcmp_() at line 32 from libstring.c
ERROR: different length string comparision, might want to use strcmp instead
index: 22       size:          0        binding: LOCAL   ( Local  symbol )  visibility: default   (Default symbol visibility rules)      address: 0x7f5ba9465000        value:         2100752  type: SECTION  (Symbol associated with a section)       name: 

----------------------------------------------------------------------->called bcmp_() at line 32 from libstring.c
ERROR: different length string comparision, might want to use strcmp instead
index: 23       size:          0        binding: LOCAL   ( Local  symbol )  visibility: default   (Default symbol visibility rules)      address: 0x7f5ba9465020        value:         2101280  type: SECTION  (Symbol associated with a section)       name: 

----------------------------------------------------------------------->called bcmp_() at line 32 from libstring.c
ERROR: different length string comparision, might want to use strcmp instead
index: 24       size:          0        binding: LOCAL   ( Local  symbol )  visibility: default   (Default symbol visibility rules)      address: 0x7f5ba9465030        value:       977486663  type: SECTION  (Symbol associated with a section)       name: 

----------------------------------------------------------------------->called bcmp_() at line 32 from libstring.c
ERROR: different length string comparision, might want to use strcmp instead
index: 25       size:          0        binding: LOCAL   ( Local  symbol )  visibility: default   (Default symbol visibility rules)      address: 0x7f5ba9264000        value:   invalid range  type: SECTION  (Symbol associated with a section)       name: 

----------------------------------------------------------------------->called bcmp_() at line 32 from libstring.c
ERROR: different length string comparision, might want to use strcmp instead
index: 26       size:          0        binding: LOCAL   ( Local  symbol )  visibility: default   (Default symbol visibility rules)      address: 0x7f5ba9264000        value:   invalid range  type: SECTION  (Symbol associated with a section)       name: 

----------------------------------------------------------------------->called bcmp_() at line 32 from libstring.c
ERROR: different length string comparision, might want to use strcmp instead
index: 27       size:          0        binding: LOCAL   ( Local  symbol )  visibility: default   (Default symbol visibility rules)      address: 0x7f5ba9264000        value:   invalid range  type: SECTION  (Symbol associated with a section)       name: 

----------------------------------------------------------------------->called bcmp_() at line 32 from libstring.c
ERROR: different length string comparision, might want to use strcmp instead
index: 28       size:          0        binding: LOCAL   ( Local  symbol )  visibility: default   (Default symbol visibility rules)      address: 0x7f5ba9264000        value:   invalid range  type: SECTION  (Symbol associated with a section)       name: 

----------------------------------------------------------------------->called bcmp_() at line 32 from libstring.c
ERROR: different length string comparision, might want to use strcmp instead
index: 29       size:          0        binding: LOCAL   ( Local  symbol )  visibility: default   (Default symbol visibility rules)      address: 0x7f5ba9264000        value:   invalid range  type: SECTION  (Symbol associated with a section)       name: 

----------------------------------------------------------------------->called bcmp_() at line 32 from libstring.c
ERROR: different length string comparision, might want to use strcmp instead
index: 30       size:          0        binding: LOCAL   ( Local  symbol )  visibility: default   (Default symbol visibility rules)      address: 0x7f5ba9264000        value:   invalid range  type: SECTION  (Symbol associated with a section)       name: 

----------------------------------------------------------------------->called bcmp_() at line 32 from libstring.c
ERROR: different length string comparision, might want to use strcmp instead
index: 31       size:          0        binding: LOCAL   ( Local  symbol )  visibility: default   (Default symbol visibility rules)      address: 0x7f5ba9264000        value:   invalid range  type: SECTION  (Symbol associated with a section)       name: 

----------------------------------------------------------------------->called bcmp_() at line 32 from libstring.c
ERROR: different length string comparision, might want to use strcmp instead
index: 32       size:          0        binding: LOCAL   ( Local  symbol )  visibility: default   (Default symbol visibility rules)      address: 0x7f5ba9264000        value:   invalid range  type: FILE     (Symbol's name is file name)             name: crtstuff.c

----------------------------------------------------------------------->called bcmp_() at line 32 from libstring.c
ERROR: different length string comparision, might want to use strcmp instead
index: 33       size:          0        binding: LOCAL   ( Local  symbol )  visibility: default   (Default symbol visibility rules)      address: 0x7f5ba9464e08        value:               0  type: OBJECT   (Symbol is a data object)                name: __JCR_LIST__

----------------------------------------------------------------------->called bcmp_() at line 32 from libstring.c
ERROR: different length string comparision, might want to use strcmp instead
index: 34       size:          0        binding: LOCAL   ( Local  symbol )  visibility: default   (Default symbol visibility rules)      address: 0x7f5ba94645f0        value:       960335176  type: FUNCTION (Symbol is a code object)                name: deregister_tm_clones

----------------------------------------------------------------------->called bcmp_() at line 32 from libstring.c
ERROR: different length string comparision, might want to use strcmp instead
index: 35       size:          0        binding: LOCAL   ( Local  symbol )  visibility: default   (Default symbol visibility rules)      address: 0x7f5ba9464630        value:      -113406648  type: FUNCTION (Symbol is a code object)                name: register_tm_clones

----------------------------------------------------------------------->called bcmp_() at line 32 from libstring.c
ERROR: different length string comparision, might want to use strcmp instead
index: 36       size:          0        binding: LOCAL   ( Local  symbol )  visibility: default   (Default symbol visibility rules)      address: 0x7f5ba9464680        value:       162086272  type: FUNCTION (Symbol is a code object)                name: __do_global_dtors_aux

----------------------------------------------------------------------->called bcmp_() at line 32 from libstring.c
ERROR: different length string comparision, might want to use strcmp instead
index: 37       size:          1        binding: LOCAL   ( Local  symbol )  visibility: default   (Default symbol visibility rules)      address: 0x7f5ba9465030        value:       977486663  type: OBJECT   (Symbol is a data object)                name: completed.6960

----------------------------------------------------------------------->called bcmp_() at line 32 from libstring.c
ERROR: different length string comparision, might want to use strcmp instead
index: 38       size:          0        binding: LOCAL   ( Local  symbol )  visibility: default   (Default symbol visibility rules)      address: 0x7f5ba9464e00        value:            1664  type: OBJECT   (Symbol is a data object)                name: __do_global_dtors_aux_fini_array_entry

----------------------------------------------------------------------->called bcmp_() at line 32 from libstring.c
ERROR: different length string comparision, might want to use strcmp instead
index: 39       size:          0        binding: LOCAL   ( Local  symbol )  visibility: default   (Default symbol visibility rules)      address: 0x7f5ba94646c0        value:      1094552904  type: FUNCTION (Symbol is a code object)                name: frame_dummy

----------------------------------------------------------------------->called bcmp_() at line 32 from libstring.c
ERROR: different length string comparision, might want to use strcmp instead
index: 40       size:          0        binding: LOCAL   ( Local  symbol )  visibility: default   (Default symbol visibility rules)      address: 0x7f5ba9464df8        value:            1728  type: OBJECT   (Symbol is a data object)                name: __frame_dummy_init_array_entry

----------------------------------------------------------------------->called bcmp_() at line 32 from libstring.c
ERROR: different length string comparision, might want to use strcmp instead
index: 41       size:          0        binding: LOCAL   ( Local  symbol )  visibility: default   (Default symbol visibility rules)      address: 0x7f5ba9264000        value:   invalid range  type: FILE     (Symbol's name is file name)             name: test_lib.c

----------------------------------------------------------------------->called bcmp_() at line 32 from libstring.c
ERROR: different length string comparision, might want to use strcmp instead
index: 42       size:          0        binding: LOCAL   ( Local  symbol )  visibility: default   (Default symbol visibility rules)      address: 0x7f5ba9264000        value:   invalid range  type: FILE     (Symbol's name is file name)             name: crtstuff.c

----------------------------------------------------------------------->called bcmp_() at line 32 from libstring.c
ERROR: different length string comparision, might want to use strcmp instead
index: 43       size:          0        binding: LOCAL   ( Local  symbol )  visibility: default   (Default symbol visibility rules)      address: 0x7f5ba92647f0        value:      is not int  type: OBJECT   (Symbol is a data object)                name: __FRAME_END__

----------------------------------------------------------------------->called bcmp_() at line 32 from libstring.c
ERROR: different length string comparision, might want to use strcmp instead
index: 44       size:          0        binding: LOCAL   ( Local  symbol )  visibility: default   (Default symbol visibility rules)      address: 0x7f5ba9464e08        value:               0  type: OBJECT   (Symbol is a data object)                name: __JCR_END__

----------------------------------------------------------------------->called bcmp_() at line 32 from libstring.c
ERROR: different length string comparision, might want to use strcmp instead
index: 45       size:          0        binding: LOCAL   ( Local  symbol )  visibility: default   (Default symbol visibility rules)      address: 0x7f5ba9264000        value:   invalid range  type: FILE     (Symbol's name is file name)             name: 

----------------------------------------------------------------------->called bcmp_() at line 32 from libstring.c
ERROR: different length string comparision, might want to use strcmp instead
index: 46       size:          4        binding: LOCAL   ( Local  symbol )  visibility: default   (Default symbol visibility rules)      address: 0x7f5ba946502c        value:               5  type: OBJECT   (Symbol is a data object)                name: test_GLOBALB

----------------------------------------------------------------------->called bcmp_() at line 32 from libstring.c
ERROR: different length string comparision, might want to use strcmp instead
index: 47       size:          0        binding: LOCAL   ( Local  symbol )  visibility: default   (Default symbol visibility rules)      address: 0x7f5ba9465020        value:         2101280  type: OBJECT   (Symbol is a data object)                name: __dso_handle

----------------------------------------------------------------------->called bcmp_() at line 32 from libstring.c
ERROR: different length string comparision, might want to use strcmp instead
index: 48       size:          0        binding: LOCAL   ( Local  symbol )  visibility: default   (Default symbol visibility rules)      address: 0x7f5ba9464e10        value:               1  type: OBJECT   (Symbol is a data object)                name: _DYNAMIC

----------------------------------------------------------------------->called bcmp_() at line 32 from libstring.c
ERROR: different length string comparision, might want to use strcmp instead
index: 49       size:          0        binding: LOCAL   ( Local  symbol )  visibility: default   (Default symbol visibility rules)      address: 0x7f5ba9264750        value:      is not int  type: NOTYPE   (Symbol type is unspecified)             name: __GNU_EH_FRAME_HDR

----------------------------------------------------------------------->called bcmp_() at line 32 from libstring.c
ERROR: different length string comparision, might want to use strcmp instead
index: 50       size:          0        binding: LOCAL   ( Local  symbol )  visibility: default   (Default symbol visibility rules)      address: 0x7f5ba9465030        value:       977486663  type: OBJECT   (Symbol is a data object)                name: __TMC_END__

----------------------------------------------------------------------->called bcmp_() at line 32 from libstring.c
ERROR: different length string comparision, might want to use strcmp instead
index: 51       size:          0        binding: LOCAL   ( Local  symbol )  visibility: default   (Default symbol visibility rules)      address: 0x7f5ba9465000        value:         2100752  type: OBJECT   (Symbol is a data object)                name: _GLOBAL_OFFSET_TABLE_

----------------------------------------------------------------------->called bcmp_() at line 32 from libstring.c
ERROR: different length string comparision, might want to use strcmp instead
index: 52       size:          0        binding: WEAK    (  Weak symbol  )  visibility: default   (Default symbol visibility rules)      address: 0x7f5ba9264000        value:   invalid range  type: NOTYPE   (Symbol type is unspecified)             name: _ITM_deregisterTMCloneTable

----------------------------------------------------------------------->called bcmp_() at line 32 from libstring.c
ERROR: different length string comparision, might want to use strcmp instead
index: 53       size:          0        binding: GLOBAL  ( Global symbol )  visibility: default   (Default symbol visibility rules)      address: 0x7f5ba9465030        value:       977486663  type: NOTYPE   (Symbol type is unspecified)             name: _edata

----------------------------------------------------------------------->called bcmp_() at line 32 from libstring.c
ERROR: different length string comparision, might want to use strcmp instead
index: 54       size:          4        binding: GLOBAL  ( Global symbol )  visibility: default   (Default symbol visibility rules)      address: 0x7f5ba9465028        value:            1234  type: OBJECT   (Symbol is a data object)                name: TESTTTTTTTTTTTTTT

----------------------------------------------------------------------->called bcmp_() at line 32 from libstring.c
ERROR: different length string comparision, might want to use strcmp instead
index: 55       size:          0        binding: GLOBAL  ( Global symbol )  visibility: default   (Default symbol visibility rules)      address: 0x7f5ba9464724        value:       149717832  type: FUNCTION (Symbol is a code object)                name: _fini

----------------------------------------------------------------------->called bcmp_() at line 32 from libstring.c
ERROR: different length string comparision, might want to use strcmp instead
index: 56       size:          0        binding: GLOBAL  ( Global symbol )  visibility: default   (Default symbol visibility rules)      address: 0x7f5ba9464000        value:      1179403647  type: FUNCTION (Symbol is a code object)                name: printf@@GLIBC_2.2.5

----------------------------------------------------------------------->called bcmp_() at line 32 from libstring.c
ERROR: different length string comparision, might want to use strcmp instead
index: 57       size:          0        binding: WEAK    (  Weak symbol  )  visibility: default   (Default symbol visibility rules)      address: 0x7f5ba9264000        value:   invalid range  type: NOTYPE   (Symbol type is unspecified)             name: __gmon_start__

----------------------------------------------------------------------->called bcmp_() at line 32 from libstring.c
ERROR: different length string comparision, might want to use strcmp instead
index: 58       size:         49        binding: GLOBAL  ( Global symbol )  visibility: default   (Default symbol visibility rules)      address: 0x7f5ba94646f0        value:      -443987883  type: FUNCTION (Symbol is a code object)                name: ggggggggggydcfiygitfghvjygftghvjbgytfucghvjhyftcgh

----------------------------------------------------------------------->called bcmp_() at line 32 from libstring.c
ggggggggggydcfiygitfghvjygftghvjbgytfucghvjhyftcgh found
int (*testb)()                               =0x7f5ba94646f0
(0x7f5ba9264000+0x0000000006f0+0x000000200000=0x7f5ba94646f0)
test();
value:      is not int
00400000-00401000 r-xp 00000000 fe:00 1888084                            /chakra/home/universalpackagemanager/chroot/arch-chroot/arch-pkg-build/packages/glibc/repos/core-x86_64/min-dl/loader/files/loader
00600000-00601000 r-xp 00000000 fe:00 1888084                            /chakra/home/universalpackagemanager/chroot/arch-chroot/arch-pkg-build/packages/glibc/repos/core-x86_64/min-dl/loader/files/loader
00601000-00602000 rwxp 00001000 fe:00 1888084                            /chakra/home/universalpackagemanager/chroot/arch-chroot/arch-pkg-build/packages/glibc/repos/core-x86_64/min-dl/loader/files/loader
00602000-00623000 rwxp 00000000 00:00 0                                  [heap]
7f5ba9463000-7f5ba9666000 rwxp 00000000 00:00 0 
7f5ba9666000-7f5ba9801000 r-xp 00000000 08:03 1576117                    /usr/lib/libc-2.25.so
7f5ba9801000-7f5ba9a00000 ---p 0019b000 08:03 1576117                    /usr/lib/libc-2.25.so
7f5ba9a00000-7f5ba9a04000 r-xp 0019a000 08:03 1576117                    /usr/lib/libc-2.25.so
7f5ba9a04000-7f5ba9a06000 rwxp 0019e000 08:03 1576117                    /usr/lib/libc-2.25.so
7f5ba9a06000-7f5ba9a0a000 rwxp 00000000 00:00 0 
7f5ba9a0a000-7f5ba9a0d000 r-xp 00000000 08:03 1576234                    /usr/lib/libdl-2.25.so
7f5ba9a0d000-7f5ba9c0c000 ---p 00003000 08:03 1576234                    /usr/lib/libdl-2.25.so
7f5ba9c0c000-7f5ba9c0d000 r-xp 00002000 08:03 1576234                    /usr/lib/libdl-2.25.so
7f5ba9c0d000-7f5ba9c0e000 rwxp 00003000 08:03 1576234                    /usr/lib/libdl-2.25.so
7f5ba9c0e000-7f5ba9c34000 r-xp 00000000 fe:00 1888077                    /chakra/home/universalpackagemanager/chroot/arch-chroot/arch-pkg-build/packages/glibc/repos/core-x86_64/min-dl/loader/files/readelf_.so
7f5ba9c34000-7f5ba9e34000 ---p 00026000 fe:00 1888077                    /chakra/home/universalpackagemanager/chroot/arch-chroot/arch-pkg-build/packages/glibc/repos/core-x86_64/min-dl/loader/files/readelf_.so
7f5ba9e34000-7f5ba9e36000 r-xp 00026000 fe:00 1888077                    /chakra/home/universalpackagemanager/chroot/arch-chroot/arch-pkg-build/packages/glibc/repos/core-x86_64/min-dl/loader/files/readelf_.so
7f5ba9e36000-7f5ba9e37000 rwxp 00028000 fe:00 1888077                    /chakra/home/universalpackagemanager/chroot/arch-chroot/arch-pkg-build/packages/glibc/repos/core-x86_64/min-dl/loader/files/readelf_.so
7f5ba9e37000-7f5ba9e42000 r-xp 00000000 fe:00 1888075                    /chakra/home/universalpackagemanager/chroot/arch-chroot/arch-pkg-build/packages/glibc/repos/core-x86_64/min-dl/loader/files/libstring.so
7f5ba9e42000-7f5baa041000 ---p 0000b000 fe:00 1888075                    /chakra/home/universalpackagemanager/chroot/arch-chroot/arch-pkg-build/packages/glibc/repos/core-x86_64/min-dl/loader/files/libstring.so
7f5baa041000-7f5baa042000 r-xp 0000a000 fe:00 1888075                    /chakra/home/universalpackagemanager/chroot/arch-chroot/arch-pkg-build/packages/glibc/repos/core-x86_64/min-dl/loader/files/libstring.so
7f5baa042000-7f5baa043000 rwxp 0000b000 fe:00 1888075                    /chakra/home/universalpackagemanager/chroot/arch-chroot/arch-pkg-build/packages/glibc/repos/core-x86_64/min-dl/loader/files/libstring.so
7f5baa043000-7f5baa046000 rwxp 00000000 00:00 0 
7f5baa046000-7f5baa069000 r-xp 00000000 08:03 1577054                    /usr/lib/ld-2.25.so
7f5baa094000-7f5baa22d000 r-xp 00000000 08:03 2108224                    /usr/lib/locale/locale-archive
7f5baa22d000-7f5baa230000 rwxp 00000000 00:00 0 
7f5baa259000-7f5baa261000 r-xp 00000000 fe:00 1888080                    /chakra/home/universalpackagemanager/chroot/arch-chroot/arch-pkg-build/packages/glibc/repos/core-x86_64/min-dl/loader/files/test_lib.so
7f5baa261000-7f5baa263000 rwxp 00000000 00:00 0 
7f5baa263000-7f5baa266000 r--p 00000000 00:00 0                          [vvar]
7f5baa266000-7f5baa268000 r-xp 00000000 00:00 0                          [vdso]
7f5baa268000-7f5baa269000 r-xp 00022000 08:03 1577054                    /usr/lib/ld-2.25.so
7f5baa269000-7f5baa26a000 rwxp 00023000 08:03 1577054                    /usr/lib/ld-2.25.so
7f5baa26a000-7f5baa26b000 rwxp 00000000 00:00 0 
7ffffffde000-7ffffffff000 rwxp 00000000 00:00 0                          [stack]
ffffffffff600000-ffffffffff601000 r-xp 00000000 00:00 0                  [vsyscall]
index: 59       size:          0        binding: GLOBAL  ( Global symbol )  visibility: default   (Default symbol visibility rules)      address: 0x7f5ba9465038        value:   invalid range  type: NOTYPE   (Symbol type is unspecified)             name: _end

----------------------------------------------------------------------->called bcmp_() at line 32 from libstring.c
ERROR: different length string comparision, might want to use strcmp instead
index: 60       size:          0        binding: GLOBAL  ( Global symbol )  visibility: default   (Default symbol visibility rules)      address: 0x7f5ba9465030        value:       977486663  type: NOTYPE   (Symbol type is unspecified)             name: __bss_start

----------------------------------------------------------------------->called bcmp_() at line 32 from libstring.c
ERROR: different length string comparision, might want to use strcmp instead
index: 61       size:          0        binding: WEAK    (  Weak symbol  )  visibility: default   (Default symbol visibility rules)      address: 0x7f5ba9264000        value:   invalid range  type: NOTYPE   (Symbol type is unspecified)             name: _Jv_RegisterClasses

----------------------------------------------------------------------->called bcmp_() at line 32 from libstring.c
ERROR: different length string comparision, might want to use strcmp instead
index: 62       size:          0        binding: WEAK    (  Weak symbol  )  visibility: default   (Default symbol visibility rules)      address: 0x7f5ba9264000        value:   invalid range  type: NOTYPE   (Symbol type is unspecified)             name: _ITM_registerTMCloneTable

----------------------------------------------------------------------->called bcmp_() at line 32 from libstring.c
ERROR: different length string comparision, might want to use strcmp instead
index: 63       size:          0        binding: WEAK    (  Weak symbol  )  visibility: default   (Default symbol visibility rules)      address: 0x7f5ba9464000        value:      1179403647  type: FUNCTION (Symbol is a code object)                name: __cxa_finalize@@GLIBC_2.2.5

----------------------------------------------------------------------->called bcmp_() at line 32 from libstring.c
ERROR: different length string comparision, might want to use strcmp instead
index: 64       size:          0        binding: GLOBAL  ( Global symbol )  visibility: default   (Default symbol visibility rules)      address: 0x7f5ba94645a0        value:       149717832  type: FUNCTION (Symbol is a code object)                name: _init

----------------------------------------------------------------------->called bcmp_() at line 32 from libstring.c
ERROR: different length string comparision, might want to use strcmp instead

[STRTAB                   (String table)                                        Section 33, Index 33]

[STRTAB                   (String table)                                        Section 34, Index 34]
testing that printf still works
main() = 0x00400850
test_GLOBAL = 0x00400836
test_LOCAL = 0xffffe1a0
attempting to load test_lib





dlerror returned with (null)



loaded test_lib
aquiring symbol ggggggggggydcfiygitfghvjygftghvjbgytfucghvjhyftcgh






dlerror returned with (null)



aquired symbol test
testing that test works
TESTTTTTTTTTTTTTT = 1234
k = 1239
attempting to close test



dlerror returned with (null)

Breakpoint 1, main () at test_loader.c:41
41          printf("closed test\n");
LEGEND: STACK | HEAP | CODE | DATA | RWX | RODATA
[REGISTERS]
*RAX  0x20
 RBX  0x0
 RCX  0x0
*RDX  0x7f5ba9a06740 (_IO_stdfile_1_lock)  0
 RDI  0x0
 RSI  0x0
*R8   0x7f5ba97ce03c (null)  sub    byte ptr [rsi + 0x75], ch /* '(null)' */
*R9   0x20
 R10  0x0
*R11  0x246
*R12  0x400740 (_start)  xor    ebp, ebp
*R13  0x7fffffffe2c0  0x2
 R14  0x0
 R15  0x0
*RBP  0x7fffffffe1e0  0x400a10 (__libc_csu_init)  push   r15
*RSP  0x7fffffffe1a0  0x400841bb49
*RIP  0x4009fd (main+429)  lea    rdi, qword ptr [rip + 0x22a]
[DISASM]
  0x4009fd <main+429>              lea    rdi, qword ptr [rip + 0x22a]
   0x400a04 <main+436>              call   puts@plt                      <0x4006c0>
 
   0x400a09 <main+441>              mov    eax, 0
   0x400a0e <main+446>              leave  
   0x400a0f <main+447>              ret    
 
   0x400a10 <__libc_csu_init>       push   r15
   0x400a12 <__libc_csu_init+2>     push   r14
   0x400a14 <__libc_csu_init+4>     mov    r15d, edi
   0x400a17 <__libc_csu_init+7>     push   r13
   0x400a19 <__libc_csu_init+9>     push   r12
   0x400a1b <__libc_csu_init+11>    lea    r12, qword ptr [rip + 0x2003b6] <0x600dd8>
[SOURCE]
36          test();
37          printf("attempting to close test\n");
38          dlclose(h);
39          l = dlerror();
40          printf("\n\n\ndlerror returned with %s\n", l);
41          printf("closed test\n");
42          return 0;
43      }
[STACK]
00:0000 rsp  0x7fffffffe1a0  0x400841bb49
01:0008      0x7fffffffe1a8  0xffffe1a0ba490000
02:0010      0x7fffffffe1b0  0x90e3ff4900007fff
03:0018      0x7fffffffe1b8  0x7fffffffe1f0  0x7fffffffe2e0  0x7fffffffe707  ...
04:0020      0x7fffffffe1c0  0x400a10 (__libc_csu_init)  push   r15
05:0028      0x7fffffffe1c8  0x7f5ba92616f0
06:0030      0x7fffffffe1d0  0x0
07:0038      0x7fffffffe1d8  0x611570  0x7f5ba9a04b38 (main_arena+88)  0x611b40  ...
[BACKTRACE]
  f 0           4009fd main+429
   f 1     7f5ba9686511 __libc_start_main+241
Breakpoint test_loader.c:41
pwndbg> x find 0x7f5ba9464000, 0x7f5ba9465038, (int) 1239
No symbol "find" in current context.
pwndbg> find 0x7f5ba9464000, 0x7f5ba9465038, (int) 1239
0x7f5ba94646fb
1 pattern found.
pwndbg> x find 0x7f5ba9464000, 0x7f5ba9465038, (int) 1239
No symbol "find" in current context.
pwndbg> x 0x7f5ba9464000
0x7f5ba9464000: 0x464c457f
pwndbg> x 0x7f5ba9464000 + 0x00000000000006f0
0x7f5ba94646f0: 0xe5894855
pwndbg> compile int (*testb)() = 0x7f5ba94646f0 ; printf("\n"); testb(); printf("\n");
gdb command line:1:18: warning: initialization makes pointer from integer without a cast [-Wint-conversion]
gdb command line:1:35: warning: incompatible implicit declaration of built-in function printf
gdb command line:1:35: note: include <stdio.h> or provide a declaration of printf


Program terminated with signal SIGSEGV, Segmentation fault.
The program no longer exists.
The program being debugged exited while in a function called from GDB.
Evaluation of the expression containing the function
(_gdb_expr) will be abandoned.
pwndbg> shell objdump -d files/test_lib.so

files/test_lib.so:     file format elf64-x86-64


Disassembly of section .init:

00000000000005a0 <_init>:
 5a0:   48 83 ec 08             sub    $0x8,%rsp
 5a4:   48 8b 05 35 0a 20 00    mov    0x200a35(%rip),%rax        # 200fe0 <__gmon_start__>
 5ab:   48 85 c0                test   %rax,%rax
 5ae:   74 02                   je     5b2 <_init+0x12>
 5b0:   ff d0                   callq  *%rax
 5b2:   48 83 c4 08             add    $0x8,%rsp
 5b6:   c3                      retq   

Disassembly of section .plt:

00000000000005c0 <.plt>:
 5c0:   ff 35 42 0a 20 00       pushq  0x200a42(%rip)        # 201008 <_GLOBAL_OFFSET_TABLE_+0x8>
 5c6:   ff 25 44 0a 20 00       jmpq   *0x200a44(%rip)        # 201010 <_GLOBAL_OFFSET_TABLE_+0x10>
 5cc:   0f 1f 40 00             nopl   0x0(%rax)

00000000000005d0 <printf@plt>:
 5d0:   ff 25 42 0a 20 00       jmpq   *0x200a42(%rip)        # 201018 <printf@GLIBC_2.2.5>
 5d6:   68 00 00 00 00          pushq  $0x0
 5db:   e9 e0 ff ff ff          jmpq   5c0 <.plt>

Disassembly of section .plt.got:

00000000000005e0 <.plt.got>:
 5e0:   ff 25 12 0a 20 00       jmpq   *0x200a12(%rip)        # 200ff8 <__cxa_finalize@GLIBC_2.2.5>
 5e6:   66 90                   xchg   %ax,%ax

Disassembly of section .text:

00000000000005f0 <deregister_tm_clones>:
 5f0:   48 8d 3d 39 0a 20 00    lea    0x200a39(%rip),%rdi        # 201030 <_edata>
 5f7:   48 8d 05 39 0a 20 00    lea    0x200a39(%rip),%rax        # 201037 <_edata+0x7>
 5fe:   55                      push   %rbp
 5ff:   48 29 f8                sub    %rdi,%rax
 602:   48 89 e5                mov    %rsp,%rbp
 605:   48 83 f8 0e             cmp    $0xe,%rax
 609:   76 15                   jbe    620 <deregister_tm_clones+0x30>
 60b:   48 8b 05 be 09 20 00    mov    0x2009be(%rip),%rax        # 200fd0 <_ITM_deregisterTMCloneTable>
 612:   48 85 c0                test   %rax,%rax
 615:   74 09                   je     620 <deregister_tm_clones+0x30>
 617:   5d                      pop    %rbp
 618:   ff e0                   jmpq   *%rax
 61a:   66 0f 1f 44 00 00       nopw   0x0(%rax,%rax,1)
 620:   5d                      pop    %rbp
 621:   c3                      retq   
 622:   0f 1f 40 00             nopl   0x0(%rax)
 626:   66 2e 0f 1f 84 00 00    nopw   %cs:0x0(%rax,%rax,1)
 62d:   00 00 00 

0000000000000630 <register_tm_clones>:
 630:   48 8d 3d f9 09 20 00    lea    0x2009f9(%rip),%rdi        # 201030 <_edata>
 637:   48 8d 35 f2 09 20 00    lea    0x2009f2(%rip),%rsi        # 201030 <_edata>
 63e:   55                      push   %rbp
 63f:   48 29 fe                sub    %rdi,%rsi
 642:   48 89 e5                mov    %rsp,%rbp
 645:   48 c1 fe 03             sar    $0x3,%rsi
 649:   48 89 f0                mov    %rsi,%rax
 64c:   48 c1 e8 3f             shr    $0x3f,%rax
 650:   48 01 c6                add    %rax,%rsi
 653:   48 d1 fe                sar    %rsi
 656:   74 18                   je     670 <register_tm_clones+0x40>
 658:   48 8b 05 91 09 20 00    mov    0x200991(%rip),%rax        # 200ff0 <_ITM_registerTMCloneTable>
 65f:   48 85 c0                test   %rax,%rax
 662:   74 0c                   je     670 <register_tm_clones+0x40>
 664:   5d                      pop    %rbp
 665:   ff e0                   jmpq   *%rax
 667:   66 0f 1f 84 00 00 00    nopw   0x0(%rax,%rax,1)
 66e:   00 00 
 670:   5d                      pop    %rbp
 671:   c3                      retq   
 672:   0f 1f 40 00             nopl   0x0(%rax)
 676:   66 2e 0f 1f 84 00 00    nopw   %cs:0x0(%rax,%rax,1)
 67d:   00 00 00 

0000000000000680 <__do_global_dtors_aux>:
 680:   80 3d a9 09 20 00 00    cmpb   $0x0,0x2009a9(%rip)        # 201030 <_edata>
 687:   75 27                   jne    6b0 <__do_global_dtors_aux+0x30>
 689:   48 83 3d 67 09 20 00    cmpq   $0x0,0x200967(%rip)        # 200ff8 <__cxa_finalize@GLIBC_2.2.5>
 690:   00 
 691:   55                      push   %rbp
 692:   48 89 e5                mov    %rsp,%rbp
 695:   74 0c                   je     6a3 <__do_global_dtors_aux+0x23>
 697:   48 8b 3d 82 09 20 00    mov    0x200982(%rip),%rdi        # 201020 <__dso_handle>
 69e:   e8 3d ff ff ff          callq  5e0 <.plt.got>
 6a3:   e8 48 ff ff ff          callq  5f0 <deregister_tm_clones>
 6a8:   5d                      pop    %rbp
 6a9:   c6 05 80 09 20 00 01    movb   $0x1,0x200980(%rip)        # 201030 <_edata>
 6b0:   f3 c3                   repz retq 
 6b2:   0f 1f 40 00             nopl   0x0(%rax)
 6b6:   66 2e 0f 1f 84 00 00    nopw   %cs:0x0(%rax,%rax,1)
 6bd:   00 00 00 

00000000000006c0 <frame_dummy>:
 6c0:   48 8d 3d 41 07 20 00    lea    0x200741(%rip),%rdi        # 200e08 <__JCR_END__>
 6c7:   48 83 3f 00             cmpq   $0x0,(%rdi)
 6cb:   75 0b                   jne    6d8 <frame_dummy+0x18>
 6cd:   e9 5e ff ff ff          jmpq   630 <register_tm_clones>
 6d2:   66 0f 1f 44 00 00       nopw   0x0(%rax,%rax,1)
 6d8:   48 8b 05 09 09 20 00    mov    0x200909(%rip),%rax        # 200fe8 <_Jv_RegisterClasses>
 6df:   48 85 c0                test   %rax,%rax
 6e2:   74 e9                   je     6cd <frame_dummy+0xd>
 6e4:   55                      push   %rbp
 6e5:   48 89 e5                mov    %rsp,%rbp
 6e8:   ff d0                   callq  *%rax
 6ea:   5d                      pop    %rbp
 6eb:   e9 40 ff ff ff          jmpq   630 <register_tm_clones>

00000000000006f0 <ggggggggggydcfiygitfghvjygftghvjbgytfucghvjhyftcgh>:
 6f0:   55                      push   %rbp
 6f1:   48 89 e5                mov    %rsp,%rbp
 6f4:   48 83 ec 10             sub    $0x10,%rsp
 6f8:   c7 45 fc d7 04 00 00    movl   $0x4d7,-0x4(%rbp)
 6ff:   48 8b 05 d2 08 20 00    mov    0x2008d2(%rip),%rax        # 200fd8 <TESTTTTTTTTTTTTTT@@Base-0x50>
 706:   8b 00                   mov    (%rax),%eax
 708:   8b 55 fc                mov    -0x4(%rbp),%edx
 70b:   89 c6                   mov    %eax,%esi
 70d:   48 8d 3d 1c 00 00 00    lea    0x1c(%rip),%rdi        # 730 <_fini+0xc>
 714:   b8 00 00 00 00          mov    $0x0,%eax
 719:   e8 b2 fe ff ff          callq  5d0 <printf@plt>
 71e:   90                      nop
 71f:   c9                      leaveq 
 720:   c3                      retq   

Disassembly of section .fini:

0000000000000724 <_fini>:
 724:   48 83 ec 08             sub    $0x8,%rsp
 728:   48 83 c4 08             add    $0x8,%rsp
 72c:   c3                      retq   
pwndbg> q
[exec@exec-pc min-dl]$
